
build/main:     file format elf64-littleriscv


Disassembly of section .text:

0000000080000000 <_start>:
    80000000:	00000413          	li	s0,0
    80000004:	00004117          	auipc	sp,0x4
    80000008:	60c13103          	ld	sp,1548(sp) # 80004610 <_GLOBAL_OFFSET_TABLE_+0x8>
    8000000c:	2ae000ef          	jal	800002ba <main>

0000000080000010 <vfexp_f32m1>:
    80000010:	00000797          	auipc	a5,0x0
    80000014:	2f87a787          	flw	fa5,760(a5) # 80000308 <_etext>
    80000018:	0d057057          	vsetvli	zero,a0,e32,m1,ta,ma
    8000001c:	9e803557          	vmv1r.v	v10,v8
    80000020:	9287d457          	vfmul.vf	v8,v8,fa5
    80000024:	00000797          	auipc	a5,0x0
    80000028:	2ec7a707          	flw	fa4,748(a5) # 80000310 <_etext+0x8>
    8000002c:	00000797          	auipc	a5,0x0
    80000030:	2e07a787          	flw	fa5,736(a5) # 8000030c <_etext+0x4>
    80000034:	4611                	li	a2,4
    80000036:	00004697          	auipc	a3,0x4
    8000003a:	5fa6b683          	ld	a3,1530(a3) # 80004630 <_GLOBAL_OFFSET_TABLE_+0x28>
    8000003e:	00004717          	auipc	a4,0x4
    80000042:	5e273703          	ld	a4,1506(a4) # 80004620 <_GLOBAL_OFFSET_TABLE_+0x18>
    80000046:	4a809457          	vfcvt.x.f.v	v8,v8
    8000004a:	00004797          	auipc	a5,0x4
    8000004e:	5ce7b783          	ld	a5,1486(a5) # 80004618 <_GLOBAL_OFFSET_TABLE_+0x10>
    80000052:	4a819457          	vfcvt.f.x.v	v8,v8
    80000056:	028754d7          	vfadd.vf	v9,v8,fa4
    8000005a:	be87d557          	vfnmsac.vf	v10,fa5,v8
    8000005e:	4a901457          	vfcvt.xu.f.v	v8,v9
    80000062:	96866457          	vmul.vx	v8,v8,a2
    80000066:	0e86e587          	vloxei32.v	v11,(a3),v8
    8000006a:	0e876487          	vloxei32.v	v9,(a4),v8
    8000006e:	0e87e407          	vloxei32.v	v8,(a5),v8
    80000072:	b2a594d7          	vfmacc.vv	v9,v11,v10
    80000076:	9e8035d7          	vmv1r.v	v11,v8
    8000007a:	b2a495d7          	vfmacc.vv	v11,v9,v10
    8000007e:	b2a59457          	vfmacc.vv	v8,v11,v10
    80000082:	8082                	ret

0000000080000084 <vfexp_f32m8>:
    80000084:	c22022f3          	csrr	t0,vlenb
    80000088:	40510133          	sub	sp,sp,t0
    8000008c:	028100a7          	vs1r.v	v1,(sp)
    80000090:	40510133          	sub	sp,sp,t0
    80000094:	02810127          	vs1r.v	v2,(sp)
    80000098:	40510133          	sub	sp,sp,t0
    8000009c:	028101a7          	vs1r.v	v3,(sp)
    800000a0:	40510133          	sub	sp,sp,t0
    800000a4:	02810227          	vs1r.v	v4,(sp)
    800000a8:	40510133          	sub	sp,sp,t0
    800000ac:	028102a7          	vs1r.v	v5,(sp)
    800000b0:	40510133          	sub	sp,sp,t0
    800000b4:	02810327          	vs1r.v	v6,(sp)
    800000b8:	40510133          	sub	sp,sp,t0
    800000bc:	028103a7          	vs1r.v	v7,(sp)
    800000c0:	40510133          	sub	sp,sp,t0
    800000c4:	02810c27          	vs1r.v	v24,(sp)
    800000c8:	40510133          	sub	sp,sp,t0
    800000cc:	02810ca7          	vs1r.v	v25,(sp)
    800000d0:	40510133          	sub	sp,sp,t0
    800000d4:	02810d27          	vs1r.v	v26,(sp)
    800000d8:	40510133          	sub	sp,sp,t0
    800000dc:	02810da7          	vs1r.v	v27,(sp)
    800000e0:	40510133          	sub	sp,sp,t0
    800000e4:	02810e27          	vs1r.v	v28,(sp)
    800000e8:	00000797          	auipc	a5,0x0
    800000ec:	2207a787          	flw	fa5,544(a5) # 80000308 <_etext>
    800000f0:	40510133          	sub	sp,sp,t0
    800000f4:	02810ea7          	vs1r.v	v29,(sp)
    800000f8:	40510133          	sub	sp,sp,t0
    800000fc:	02810f27          	vs1r.v	v30,(sp)
    80000100:	0d357057          	vsetvli	zero,a0,e32,m8,ta,ma
    80000104:	40510133          	sub	sp,sp,t0
    80000108:	02810fa7          	vs1r.v	v31,(sp)
    8000010c:	9287dc57          	vfmul.vf	v24,v8,fa5
    80000110:	00000797          	auipc	a5,0x0
    80000114:	2007a707          	flw	fa4,512(a5) # 80000310 <_etext+0x8>
    80000118:	9e83b857          	vmv8r.v	v16,v8
    8000011c:	4611                	li	a2,4
    8000011e:	00000797          	auipc	a5,0x0
    80000122:	1ee7a787          	flw	fa5,494(a5) # 8000030c <_etext+0x4>
    80000126:	00004697          	auipc	a3,0x4
    8000012a:	50a6b683          	ld	a3,1290(a3) # 80004630 <_GLOBAL_OFFSET_TABLE_+0x28>
    8000012e:	4b809c57          	vfcvt.x.f.v	v24,v24
    80000132:	00004717          	auipc	a4,0x4
    80000136:	4ee73703          	ld	a4,1262(a4) # 80004620 <_GLOBAL_OFFSET_TABLE_+0x18>
    8000013a:	00004797          	auipc	a5,0x4
    8000013e:	4de7b783          	ld	a5,1246(a5) # 80004618 <_GLOBAL_OFFSET_TABLE_+0x10>
    80000142:	4b819c57          	vfcvt.f.x.v	v24,v24
    80000146:	c22022f3          	csrr	t0,vlenb
    8000014a:	03875457          	vfadd.vf	v8,v24,fa4
    8000014e:	bf87d857          	vfnmsac.vf	v16,fa5,v24
    80000152:	4a801457          	vfcvt.xu.f.v	v8,v8
    80000156:	96866457          	vmul.vx	v8,v8,a2
    8000015a:	0e86ec07          	vloxei32.v	v24,(a3),v8
    8000015e:	0e876007          	vloxei32.v	v0,(a4),v8
    80000162:	0e87e407          	vloxei32.v	v8,(a5),v8
    80000166:	b30c1057          	vfmacc.vv	v0,v24,v16
    8000016a:	9e83bc57          	vmv8r.v	v24,v8
    8000016e:	b3001c57          	vfmacc.vv	v24,v0,v16
    80000172:	b30c1457          	vfmacc.vv	v8,v24,v16
    80000176:	02817f87          	vl1re64.v	v31,(sp)
    8000017a:	9116                	add	sp,sp,t0
    8000017c:	02817f07          	vl1re64.v	v30,(sp)
    80000180:	9116                	add	sp,sp,t0
    80000182:	02817e87          	vl1re64.v	v29,(sp)
    80000186:	9116                	add	sp,sp,t0
    80000188:	02817e07          	vl1re64.v	v28,(sp)
    8000018c:	9116                	add	sp,sp,t0
    8000018e:	02817d87          	vl1re64.v	v27,(sp)
    80000192:	9116                	add	sp,sp,t0
    80000194:	02817d07          	vl1re64.v	v26,(sp)
    80000198:	9116                	add	sp,sp,t0
    8000019a:	02817c87          	vl1re64.v	v25,(sp)
    8000019e:	9116                	add	sp,sp,t0
    800001a0:	02817c07          	vl1re64.v	v24,(sp)
    800001a4:	9116                	add	sp,sp,t0
    800001a6:	02817387          	vl1re64.v	v7,(sp)
    800001aa:	9116                	add	sp,sp,t0
    800001ac:	02817307          	vl1re64.v	v6,(sp)
    800001b0:	9116                	add	sp,sp,t0
    800001b2:	02817287          	vl1re64.v	v5,(sp)
    800001b6:	9116                	add	sp,sp,t0
    800001b8:	02817207          	vl1re64.v	v4,(sp)
    800001bc:	9116                	add	sp,sp,t0
    800001be:	02817187          	vl1re64.v	v3,(sp)
    800001c2:	9116                	add	sp,sp,t0
    800001c4:	02817107          	vl1re64.v	v2,(sp)
    800001c8:	9116                	add	sp,sp,t0
    800001ca:	02817087          	vl1re64.v	v1,(sp)
    800001ce:	9116                	add	sp,sp,t0
    800001d0:	8082                	ret

00000000800001d2 <softmax>:
    800001d2:	715d                	addi	sp,sp,-80
    800001d4:	00004797          	auipc	a5,0x4
    800001d8:	4547b783          	ld	a5,1108(a5) # 80004628 <_GLOBAL_OFFSET_TABLE_+0x20>
    800001dc:	0007a787          	flw	fa5,0(a5)
    800001e0:	e0a2                	sd	s0,64(sp)
    800001e2:	4d80                	lw	s0,24(a1)
    800001e4:	f44e                	sd	s3,40(sp)
    800001e6:	f052                	sd	s4,32(sp)
    800001e8:	ec56                	sd	s5,24(sp)
    800001ea:	cd00f057          	vsetivli	zero,1,e32,m1,ta,ma
    800001ee:	e486                	sd	ra,72(sp)
    800001f0:	a422                	fsd	fs0,8(sp)
    800001f2:	02053a03          	ld	s4,32(a0)
    800001f6:	0205ba83          	ld	s5,32(a1)
    800001fa:	5e07d0d7          	vfmv.v.f	v1,fa5
    800001fe:	89ae                	mv	s3,a1
    80000200:	02805363          	blez	s0,80000226 <softmax+0x54>
    80000204:	4701                	li	a4,0
    80000206:	40e407bb          	subw	a5,s0,a4
    8000020a:	00271693          	slli	a3,a4,0x2
    8000020e:	0d37f7d7          	vsetvli	a5,a5,e32,m8,ta,ma
    80000212:	96d6                	add	a3,a3,s5
    80000214:	0206e407          	vle32.v	v8,(a3)
    80000218:	9f3d                	addw	a4,a4,a5
    8000021a:	1e8090d7          	vfredmax.vs	v1,v8,v1
    8000021e:	fe8744e3          	blt	a4,s0,80000206 <softmax+0x34>
    80000222:	cd00f057          	vsetivli	zero,1,e32,m1,ta,ma
    80000226:	42101457          	vfmv.f.s	fs0,v1
    8000022a:	420060d7          	vmv.s.x	v1,zero
    8000022e:	04805363          	blez	s0,80000274 <softmax+0xa2>
    80000232:	f84a                	sd	s2,48(sp)
    80000234:	fc26                	sd	s1,56(sp)
    80000236:	4901                	li	s2,0
    80000238:	00291493          	slli	s1,s2,0x2
    8000023c:	4124043b          	subw	s0,s0,s2
    80000240:	0d347457          	vsetvli	s0,s0,e32,m8,ta,ma
    80000244:	009a87b3          	add	a5,s5,s1
    80000248:	0207e407          	vle32.v	v8,(a5)
    8000024c:	8522                	mv	a0,s0
    8000024e:	94d2                	add	s1,s1,s4
    80000250:	0124093b          	addw	s2,s0,s2
    80000254:	0a845457          	vfsub.vf	v8,v8,fs0
    80000258:	e2dff0ef          	jal	80000084 <vfexp_f32m8>
    8000025c:	0d347057          	vsetvli	zero,s0,e32,m8,ta,ma
    80000260:	0204e427          	vse32.v	v8,(s1)
    80000264:	0e8090d7          	vfredosum.vs	v1,v8,v1
    80000268:	0189a403          	lw	s0,24(s3)
    8000026c:	fc8946e3          	blt	s2,s0,80000238 <softmax+0x66>
    80000270:	74e2                	ld	s1,56(sp)
    80000272:	7942                	ld	s2,48(sp)
    80000274:	421017d7          	vfmv.f.s	fa5,v1
    80000278:	0ff0000f          	fence
    8000027c:	0189a783          	lw	a5,24(s3)
    80000280:	02f05463          	blez	a5,800002a8 <softmax+0xd6>
    80000284:	4681                	li	a3,0
    80000286:	9f95                	subw	a5,a5,a3
    80000288:	00269713          	slli	a4,a3,0x2
    8000028c:	0d37f7d7          	vsetvli	a5,a5,e32,m8,ta,ma
    80000290:	9752                	add	a4,a4,s4
    80000292:	02076407          	vle32.v	v8,(a4)
    80000296:	9ebd                	addw	a3,a3,a5
    80000298:	8287d457          	vfdiv.vf	v8,v8,fa5
    8000029c:	02076427          	vse32.v	v8,(a4)
    800002a0:	0189a783          	lw	a5,24(s3)
    800002a4:	fef6c1e3          	blt	a3,a5,80000286 <softmax+0xb4>
    800002a8:	60a6                	ld	ra,72(sp)
    800002aa:	6406                	ld	s0,64(sp)
    800002ac:	79a2                	ld	s3,40(sp)
    800002ae:	7a02                	ld	s4,32(sp)
    800002b0:	6ae2                	ld	s5,24(sp)
    800002b2:	2422                	fld	fs0,8(sp)
    800002b4:	4501                	li	a0,0
    800002b6:	6161                	addi	sp,sp,80
    800002b8:	8082                	ret

00000000800002ba <main>:
    800002ba:	cdb37057          	vsetivli	zero,6,e64,m8,ta,ma
    800002be:	00000797          	auipc	a5,0x0
    800002c2:	2e278793          	addi	a5,a5,738 # 800005a0 <der_1+0xd0>
    800002c6:	0207f807          	vle64.v	v16,(a5)
    800002ca:	7119                	addi	sp,sp,-128
    800002cc:	f8a2                	sd	s0,112(sp)
    800002ce:	f4a6                	sd	s1,104(sp)
    800002d0:	f0ca                	sd	s2,96(sp)
    800002d2:	fc86                	sd	ra,120(sp)
    800002d4:	00000797          	auipc	a5,0x0
    800002d8:	2fc78793          	addi	a5,a5,764 # 800005d0 <der_1+0x100>
    800002dc:	0207f407          	vle64.v	v8,(a5)
    800002e0:	02017827          	vse64.v	v16,(sp)
    800002e4:	1804                	addi	s1,sp,48
    800002e6:	890a                	mv	s2,sp
    800002e8:	4429                	li	s0,10
    800002ea:	0204f427          	vse64.v	v8,(s1)
    800002ee:	85ca                	mv	a1,s2
    800002f0:	8526                	mv	a0,s1
    800002f2:	347d                	addiw	s0,s0,-1
    800002f4:	edfff0ef          	jal	800001d2 <softmax>
    800002f8:	f87d                	bnez	s0,800002ee <main+0x34>
    800002fa:	70e6                	ld	ra,120(sp)
    800002fc:	7446                	ld	s0,112(sp)
    800002fe:	74a6                	ld	s1,104(sp)
    80000300:	7906                	ld	s2,96(sp)
    80000302:	4501                	li	a0,0
    80000304:	6109                	addi	sp,sp,128
    80000306:	8082                	ret

Disassembly of section .rodata:

0000000080000308 <esize_fp32-0x10>:
    80000308:	3fb8aa3b          	.insn	4, 0x3fb8aa3b
    8000030c:	7218                	ld	a4,32(a2)
    8000030e:	3f31                	addiw	t5,t5,-20
    80000310:	0000                	unimp
    80000312:	420c                	lw	a1,0(a2)
    80000314:	0000                	unimp
	...

0000000080000318 <esize_fp32>:
    80000318:	0000                	unimp
    8000031a:	4080                	lw	s0,0(s1)

000000008000031c <offset_fp32>:
    8000031c:	0000                	unimp
    8000031e:	420c                	lw	a1,0(a2)

0000000080000320 <offset>:
    80000320:	00000023          	sb	zero,0(zero) # 0 <_start-0x80000000>

0000000080000324 <ln2_recip_h>:
    80000324:	3fb8aa3b          	.insn	4, 0x3fb8aa3b

0000000080000328 <ln2_h>:
    80000328:	7218                	ld	a4,32(a2)
    8000032a:	3f31                	addiw	t5,t5,-20
    8000032c:	0000                	unimp
	...

0000000080000330 <der_6>:
    80000330:	2caaaaab          	.insn	4, 0x2caaaaab
    80000334:	2d2aaaab          	.insn	4, 0x2d2aaaab
    80000338:	2daaaaab          	.insn	4, 0x2daaaaab
    8000033c:	2e2aaaab          	.insn	4, 0x2e2aaaab
    80000340:	2eaaaaab          	.insn	4, 0x2eaaaaab
    80000344:	2f2aaaab          	.insn	4, 0x2f2aaaab
    80000348:	2faaaaab          	.insn	4, 0x2faaaaab
    8000034c:	302aaaab          	.insn	4, 0x302aaaab
    80000350:	30aaaaab          	.insn	4, 0x30aaaaab
    80000354:	312aaaab          	.insn	4, 0x312aaaab
    80000358:	31aaaaab          	.insn	4, 0x31aaaaab
    8000035c:	322aaaab          	.insn	4, 0x322aaaab
    80000360:	32aaaaab          	.insn	4, 0x32aaaaab
    80000364:	332aaaab          	.insn	4, 0x332aaaab
    80000368:	33aaaaab          	.insn	4, 0x33aaaaab
    8000036c:	342aaaab          	.insn	4, 0x342aaaab
    80000370:	34aaaaab          	.insn	4, 0x34aaaaab
    80000374:	352aaaab          	.insn	4, 0x352aaaab
    80000378:	35aaaaab          	.insn	4, 0x35aaaaab
    8000037c:	362aaaab          	.insn	4, 0x362aaaab
    80000380:	36aaaaab          	.insn	4, 0x36aaaaab
    80000384:	372aaaab          	.insn	4, 0x372aaaab
    80000388:	37aaaaab          	.insn	4, 0x37aaaaab
    8000038c:	382aaaab          	.insn	4, 0x382aaaab
    80000390:	38aaaaab          	.insn	4, 0x38aaaaab
    80000394:	392aaaab          	.insn	4, 0x392aaaab
    80000398:	39aaaaab          	.insn	4, 0x39aaaaab
    8000039c:	3a2aaaab          	.insn	4, 0x3a2aaaab
    800003a0:	3aaaaaab          	.insn	4, 0x3aaaaaab
    800003a4:	3b2aaaab          	.insn	4, 0x3b2aaaab
    800003a8:	3baaaaab          	.insn	4, 0x3baaaaab
    800003ac:	3c2aaaab          	.insn	4, 0x3c2aaaab
    800003b0:	3caaaaab          	.insn	4, 0x3caaaaab
    800003b4:	3d2aaaab          	.insn	4, 0x3d2aaaab
    800003b8:	3daaaaab          	.insn	4, 0x3daaaaab
    800003bc:	3e2aaaab          	.insn	4, 0x3e2aaaab
    800003c0:	3eaaaaab          	.insn	4, 0x3eaaaaab
    800003c4:	3f2aaaab          	.insn	4, 0x3f2aaaab
    800003c8:	3faaaaab          	.insn	4, 0x3faaaaab
    800003cc:	402aaaab          	.insn	4, 0x402aaaab
    800003d0:	40aaaaab          	.insn	4, 0x40aaaaab
    800003d4:	412aaaab          	.insn	4, 0x412aaaab
    800003d8:	41aaaaab          	.insn	4, 0x41aaaaab
    800003dc:	422aaaab          	.insn	4, 0x422aaaab
    800003e0:	42aaaaab          	.insn	4, 0x42aaaaab
    800003e4:	432aaaab          	.insn	4, 0x432aaaab
    800003e8:	43aaaaab          	.insn	4, 0x43aaaaab
    800003ec:	442aaaab          	.insn	4, 0x442aaaab
    800003f0:	44aaaaab          	.insn	4, 0x44aaaaab
    800003f4:	452aaaab          	.insn	4, 0x452aaaab
    800003f8:	45aaaaab          	.insn	4, 0x45aaaaab
    800003fc:	0000                	unimp
	...

0000000080000400 <der_2>:
    80000400:	0000                	unimp
    80000402:	2d80                	fld	fs0,24(a1)
    80000404:	0000                	unimp
    80000406:	2e00                	fld	fs0,24(a2)
    80000408:	0000                	unimp
    8000040a:	2e80                	fld	fs0,24(a3)
    8000040c:	0000                	unimp
    8000040e:	2f00                	fld	fs0,24(a4)
    80000410:	0000                	unimp
    80000412:	2f80                	fld	fs0,24(a5)
    80000414:	0000                	unimp
    80000416:	3000                	fld	fs0,32(s0)
    80000418:	0000                	unimp
    8000041a:	3080                	fld	fs0,32(s1)
    8000041c:	0000                	unimp
    8000041e:	3100                	fld	fs0,32(a0)
    80000420:	0000                	unimp
    80000422:	3180                	fld	fs0,32(a1)
    80000424:	0000                	unimp
    80000426:	3200                	fld	fs0,32(a2)
    80000428:	0000                	unimp
    8000042a:	3280                	fld	fs0,32(a3)
    8000042c:	0000                	unimp
    8000042e:	3300                	fld	fs0,32(a4)
    80000430:	0000                	unimp
    80000432:	3380                	fld	fs0,32(a5)
    80000434:	0000                	unimp
    80000436:	3400                	fld	fs0,40(s0)
    80000438:	0000                	unimp
    8000043a:	3480                	fld	fs0,40(s1)
    8000043c:	0000                	unimp
    8000043e:	3500                	fld	fs0,40(a0)
    80000440:	0000                	unimp
    80000442:	3580                	fld	fs0,40(a1)
    80000444:	0000                	unimp
    80000446:	3600                	fld	fs0,40(a2)
    80000448:	0000                	unimp
    8000044a:	3680                	fld	fs0,40(a3)
    8000044c:	0000                	unimp
    8000044e:	3700                	fld	fs0,40(a4)
    80000450:	0000                	unimp
    80000452:	3780                	fld	fs0,40(a5)
    80000454:	0000                	unimp
    80000456:	3800                	fld	fs0,48(s0)
    80000458:	0000                	unimp
    8000045a:	3880                	fld	fs0,48(s1)
    8000045c:	0000                	unimp
    8000045e:	3900                	fld	fs0,48(a0)
    80000460:	0000                	unimp
    80000462:	3980                	fld	fs0,48(a1)
    80000464:	0000                	unimp
    80000466:	3a00                	fld	fs0,48(a2)
    80000468:	0000                	unimp
    8000046a:	3a80                	fld	fs0,48(a3)
    8000046c:	0000                	unimp
    8000046e:	3b00                	fld	fs0,48(a4)
    80000470:	0000                	unimp
    80000472:	3b80                	fld	fs0,48(a5)
    80000474:	0000                	unimp
    80000476:	3c00                	fld	fs0,56(s0)
    80000478:	0000                	unimp
    8000047a:	3c80                	fld	fs0,56(s1)
    8000047c:	0000                	unimp
    8000047e:	3d00                	fld	fs0,56(a0)
    80000480:	0000                	unimp
    80000482:	3d80                	fld	fs0,56(a1)
    80000484:	0000                	unimp
    80000486:	3e00                	fld	fs0,56(a2)
    80000488:	0000                	unimp
    8000048a:	3e80                	fld	fs0,56(a3)
    8000048c:	0000                	unimp
    8000048e:	3f00                	fld	fs0,56(a4)
    80000490:	0000                	unimp
    80000492:	3f80                	fld	fs0,56(a5)
    80000494:	0000                	unimp
    80000496:	4000                	lw	s0,0(s0)
    80000498:	0000                	unimp
    8000049a:	4080                	lw	s0,0(s1)
    8000049c:	0000                	unimp
    8000049e:	4100                	lw	s0,0(a0)
    800004a0:	0000                	unimp
    800004a2:	4180                	lw	s0,0(a1)
    800004a4:	0000                	unimp
    800004a6:	4200                	lw	s0,0(a2)
    800004a8:	0000                	unimp
    800004aa:	4280                	lw	s0,0(a3)
    800004ac:	0000                	unimp
    800004ae:	4300                	lw	s0,0(a4)
    800004b0:	0000                	unimp
    800004b2:	4380                	lw	s0,0(a5)
    800004b4:	0000                	unimp
    800004b6:	4400                	lw	s0,8(s0)
    800004b8:	0000                	unimp
    800004ba:	4480                	lw	s0,8(s1)
    800004bc:	0000                	unimp
    800004be:	4500                	lw	s0,8(a0)
    800004c0:	0000                	unimp
    800004c2:	4580                	lw	s0,8(a1)
    800004c4:	0000                	unimp
    800004c6:	4600                	lw	s0,8(a2)
    800004c8:	0000                	unimp
    800004ca:	4680                	lw	s0,8(a3)
    800004cc:	0000                	unimp
    800004ce:	4700                	lw	s0,8(a4)

00000000800004d0 <der_1>:
    800004d0:	0000                	unimp
    800004d2:	2e00                	fld	fs0,24(a2)
    800004d4:	0000                	unimp
    800004d6:	2e80                	fld	fs0,24(a3)
    800004d8:	0000                	unimp
    800004da:	2f00                	fld	fs0,24(a4)
    800004dc:	0000                	unimp
    800004de:	2f80                	fld	fs0,24(a5)
    800004e0:	0000                	unimp
    800004e2:	3000                	fld	fs0,32(s0)
    800004e4:	0000                	unimp
    800004e6:	3080                	fld	fs0,32(s1)
    800004e8:	0000                	unimp
    800004ea:	3100                	fld	fs0,32(a0)
    800004ec:	0000                	unimp
    800004ee:	3180                	fld	fs0,32(a1)
    800004f0:	0000                	unimp
    800004f2:	3200                	fld	fs0,32(a2)
    800004f4:	0000                	unimp
    800004f6:	3280                	fld	fs0,32(a3)
    800004f8:	0000                	unimp
    800004fa:	3300                	fld	fs0,32(a4)
    800004fc:	0000                	unimp
    800004fe:	3380                	fld	fs0,32(a5)
    80000500:	0000                	unimp
    80000502:	3400                	fld	fs0,40(s0)
    80000504:	0000                	unimp
    80000506:	3480                	fld	fs0,40(s1)
    80000508:	0000                	unimp
    8000050a:	3500                	fld	fs0,40(a0)
    8000050c:	0000                	unimp
    8000050e:	3580                	fld	fs0,40(a1)
    80000510:	0000                	unimp
    80000512:	3600                	fld	fs0,40(a2)
    80000514:	0000                	unimp
    80000516:	3680                	fld	fs0,40(a3)
    80000518:	0000                	unimp
    8000051a:	3700                	fld	fs0,40(a4)
    8000051c:	0000                	unimp
    8000051e:	3780                	fld	fs0,40(a5)
    80000520:	0000                	unimp
    80000522:	3800                	fld	fs0,48(s0)
    80000524:	0000                	unimp
    80000526:	3880                	fld	fs0,48(s1)
    80000528:	0000                	unimp
    8000052a:	3900                	fld	fs0,48(a0)
    8000052c:	0000                	unimp
    8000052e:	3980                	fld	fs0,48(a1)
    80000530:	0000                	unimp
    80000532:	3a00                	fld	fs0,48(a2)
    80000534:	0000                	unimp
    80000536:	3a80                	fld	fs0,48(a3)
    80000538:	0000                	unimp
    8000053a:	3b00                	fld	fs0,48(a4)
    8000053c:	0000                	unimp
    8000053e:	3b80                	fld	fs0,48(a5)
    80000540:	0000                	unimp
    80000542:	3c00                	fld	fs0,56(s0)
    80000544:	0000                	unimp
    80000546:	3c80                	fld	fs0,56(s1)
    80000548:	0000                	unimp
    8000054a:	3d00                	fld	fs0,56(a0)
    8000054c:	0000                	unimp
    8000054e:	3d80                	fld	fs0,56(a1)
    80000550:	0000                	unimp
    80000552:	3e00                	fld	fs0,56(a2)
    80000554:	0000                	unimp
    80000556:	3e80                	fld	fs0,56(a3)
    80000558:	0000                	unimp
    8000055a:	3f00                	fld	fs0,56(a4)
    8000055c:	0000                	unimp
    8000055e:	3f80                	fld	fs0,56(a5)
    80000560:	0000                	unimp
    80000562:	4000                	lw	s0,0(s0)
    80000564:	0000                	unimp
    80000566:	4080                	lw	s0,0(s1)
    80000568:	0000                	unimp
    8000056a:	4100                	lw	s0,0(a0)
    8000056c:	0000                	unimp
    8000056e:	4180                	lw	s0,0(a1)
    80000570:	0000                	unimp
    80000572:	4200                	lw	s0,0(a2)
    80000574:	0000                	unimp
    80000576:	4280                	lw	s0,0(a3)
    80000578:	0000                	unimp
    8000057a:	4300                	lw	s0,0(a4)
    8000057c:	0000                	unimp
    8000057e:	4380                	lw	s0,0(a5)
    80000580:	0000                	unimp
    80000582:	4400                	lw	s0,8(s0)
    80000584:	0000                	unimp
    80000586:	4480                	lw	s0,8(s1)
    80000588:	0000                	unimp
    8000058a:	4500                	lw	s0,8(a0)
    8000058c:	0000                	unimp
    8000058e:	4580                	lw	s0,8(a1)
    80000590:	0000                	unimp
    80000592:	4600                	lw	s0,8(a2)
    80000594:	0000                	unimp
    80000596:	4680                	lw	s0,8(a3)
    80000598:	0000                	unimp
    8000059a:	4700                	lw	s0,8(a4)
    8000059c:	0000                	unimp
    8000059e:	4780                	lw	s0,8(a5)

Disassembly of section .data:

00000000800005a0 <input_data-0x60>:
    800005a0:	0040                	addi	s0,sp,4
    800005a2:	0000                	unimp
    800005a4:	0040                	addi	s0,sp,4
	...
    800005ae:	0000                	unimp
    800005b0:	0002                	c.slli64	zero
    800005b2:	0000                	unimp
    800005b4:	0004                	.insn	2, 0x0004
    800005b6:	0000                	unimp
    800005b8:	1000                	addi	s0,sp,32
    800005ba:	0000                	unimp
    800005bc:	0000                	unimp
    800005be:	0000                	unimp
    800005c0:	0600                	addi	s0,sp,768
    800005c2:	8000                	.insn	2, 0x8000
    800005c4:	0000                	unimp
    800005c6:	0000                	unimp
    800005c8:	0100                	addi	s0,sp,128
    800005ca:	0000                	unimp
    800005cc:	0000                	unimp
    800005ce:	0000                	unimp
    800005d0:	0040                	addi	s0,sp,4
    800005d2:	0000                	unimp
    800005d4:	0040                	addi	s0,sp,4
	...
    800005de:	0000                	unimp
    800005e0:	0002                	c.slli64	zero
    800005e2:	0000                	unimp
    800005e4:	0004                	.insn	2, 0x0004
    800005e6:	0000                	unimp
    800005e8:	1000                	addi	s0,sp,32
    800005ea:	0000                	unimp
    800005ec:	0000                	unimp
    800005ee:	0000                	unimp
    800005f0:	4648                	lw	a0,12(a2)
    800005f2:	8000                	.insn	2, 0x8000
    800005f4:	0000                	unimp
    800005f6:	0000                	unimp
    800005f8:	0100                	addi	s0,sp,128
    800005fa:	0000                	unimp
    800005fc:	0000                	unimp
	...

0000000080000600 <input_data>:
    80000600:	c0357ebf 3f290774 	.insn	8, 0x3f290774c0357ebf
    80000608:	177a                	slli	a4,a4,0x3e
    8000060a:	1fc93d6f          	jal	s10,80093806 <_end+0x82806>
    8000060e:	408e                	lw	ra,192(sp)
    80000610:	36ce                	fld	fa3,240(sp)
    80000612:	de133f03          	ld	t5,-543(t1)
    80000616:	4119                	li	sp,6
    80000618:	647c                	ld	a5,200(s0)
    8000061a:	407c                	lw	a5,68(s0)
    8000061c:	3eeb52eb          	.insn	4, 0x3eeb52eb
    80000620:	1505                	addi	a0,a0,-31
    80000622:	3db5                	addiw	s11,s11,-19
    80000624:	ffd5                	bnez	a5,800005e0 <der_1+0x110>
    80000626:	4102                	lw	sp,0(sp)
    80000628:	c8a9                	beqz	s1,8000067a <input_data+0x7a>
    8000062a:	a8074107          	.insn	4, 0xa8074107
    8000062e:	c0fd                	beqz	s1,80000714 <input_data+0x114>
    80000630:	fab5                	bnez	a3,800005a4 <der_1+0xd4>
    80000632:	4089                	li	ra,2
    80000634:	0660                	addi	s0,sp,780
    80000636:	c016                	sw	t0,0(sp)
    80000638:	c00f52e3          	bgez	t5,8000023c <softmax+0x6a>
    8000063c:	c0244773          	.insn	4, 0xc0244773
    80000640:	660a                	ld	a2,128(sp)
    80000642:	8180c067          	.insn	4, 0x8180c067
    80000646:	411a                	lw	sp,132(sp)
    80000648:	1616                	slli	a2,a2,0x25
    8000064a:	c11a                	sw	t1,128(sp)
    8000064c:	410f732b          	.insn	4, 0x410f732b
    80000650:	6d1e                	ld	s10,448(sp)
    80000652:	c0b6                	sw	a3,64(sp)
    80000654:	40fc4587          	.insn	4, 0x40fc4587
    80000658:	8c2d                	xor	s0,s0,a1
    8000065a:	c10d                	beqz	a0,8000067c <input_data+0x7c>
    8000065c:	af29                	j	80000d76 <input_data+0x776>
    8000065e:	40d9                	li	ra,22
    80000660:	6c25                	lui	s8,0x9
    80000662:	c0dc                	sw	a5,4(s1)
    80000664:	2601                	sext.w	a2,a2
    80000666:	4118                	lw	a4,0(a0)
    80000668:	c5bd                	beqz	a1,800006d6 <input_data+0xd6>
    8000066a:	405f cd42 c0db      	.insn	6, 0xc0dbcd42405f
    80000670:	c038d0af          	.insn	4, 0xc038d0af
    80000674:	aee4                	fsd	fs1,216(a3)
    80000676:	409c                	lw	a5,0(s1)
    80000678:	f104                	sd	s1,32(a0)
    8000067a:	c0de                	sw	s7,64(sp)
    8000067c:	af81                	j	80000dcc <input_data+0x7cc>
    8000067e:	3f70                	fld	fa2,248(a4)
    80000680:	ec96                	sd	t0,88(sp)
    80000682:	3fce                	fld	ft11,240(sp)
    80000684:	1772                	slli	a4,a4,0x3c
    80000686:	c0b2                	sw	a2,64(sp)
    80000688:	c1fd                	beqz	a1,8000076e <input_data+0x16e>
    8000068a:	be20                	fsd	fs0,120(a2)
    8000068c:	c0cab0a7          	fsd	fa2,-1023(s5)
    80000690:	9e5a                	add	t3,t3,s6
    80000692:	4bea3ec7          	fmsub.d	ft9,fs4,ft10,fs1,rup
    80000696:	4088                	lw	a0,0(s1)
    80000698:	a3bc                	fsd	fa5,64(a5)
    8000069a:	c0e8                	sw	a0,68(s1)
    8000069c:	2121                	addiw	sp,sp,8
    8000069e:	bffa                	fsd	ft10,504(sp)
    800006a0:	3ad8                	fld	fa4,176(a3)
    800006a2:	c0ad                	beqz	s1,80000704 <input_data+0x104>
    800006a4:	7592                	ld	a1,288(sp)
    800006a6:	c102                	sw	zero,128(sp)
    800006a8:	4ef4                	lw	a3,92(a3)
    800006aa:	4062                	.insn	2, 0x4062
    800006ac:	3a8e                	fld	fs5,224(sp)
    800006ae:	e654c08f          	.insn	4, 0xe654c08f
    800006b2:	4104                	lw	s1,0(a0)
    800006b4:	8945                	andi	a0,a0,17
    800006b6:	4109                	li	sp,2
    800006b8:	bf98                	fsd	fa4,56(a5)
    800006ba:	409d                	li	ra,7
    800006bc:	5800                	lw	s0,48(s0)
    800006be:	a0294007          	.insn	4, 0xa0294007
    800006c2:	c10c                	sw	a1,0(a0)
    800006c4:	254e                	fld	fa0,208(sp)
    800006c6:	7b1c4037          	lui	zero,0x7b1c4
    800006ca:	40f1                	li	ra,28
    800006cc:	bfe1846f          	jal	s0,7ff18aca <_start-0xe7536>
    800006d0:	7039                	c.lui	zero,0xfffee
    800006d2:	f5f1c0b3          	.insn	4, 0xf5f1c0b3
    800006d6:	c07e                	sw	t6,0(sp)
    800006d8:	04a1                	addi	s1,s1,8
    800006da:	4106                	lw	sp,64(sp)
    800006dc:	c0625233          	.insn	4, 0xc0625233
    800006e0:	d98c                	sw	a1,48(a1)
    800006e2:	411d                	li	sp,7
    800006e4:	a409                	j	800008e6 <input_data+0x2e6>
    800006e6:	c0f1                	beqz	s1,800007aa <input_data+0x1aa>
    800006e8:	514c                	lw	a1,36(a0)
    800006ea:	c0b2                	sw	a2,64(sp)
    800006ec:	86f6                	mv	a3,t4
    800006ee:	410d                	li	sp,3
    800006f0:	60c4                	ld	s1,128(s1)
    800006f2:	c090                	sw	a2,0(s1)
    800006f4:	0b4e                	slli	s6,s6,0x13
    800006f6:	6934403f 4fd1c11d 	.insn	8, 0x4fd1c11d6934403f
    800006fe:	c0f1                	beqz	s1,800007c2 <input_data+0x1c2>
    80000700:	3166                	fld	ft2,120(sp)
    80000702:	423ec097          	auipc	ra,0x423ec
    80000706:	874440db          	.insn	4, 0x874440db
    8000070a:	c0d5                	beqz	s1,800007ae <input_data+0x1ae>
    8000070c:	29fa                	fld	fs3,408(sp)
    8000070e:	c048                	sw	a0,4(s0)
    80000710:	f67c                	sd	a5,232(a2)
    80000712:	32dbc107          	.insn	4, 0x32dbc107
    80000716:	612ac023          	.insn	4, 0x612ac023
    8000071a:	3573c0b3          	.insn	4, 0x3573c0b3
    8000071e:	4114                	lw	a3,0(a0)
    80000720:	3d0c                	fld	fa1,56(a0)
    80000722:	c07e                	sw	t6,0(sp)
    80000724:	92df 4101 f64d      	.insn	6, 0xf64d410192df
    8000072a:	cf253fd7          	.insn	4, 0xcf253fd7
    8000072e:	1d17c073          	.insn	4, 0x1d17c073
    80000732:	7459411b          	.insn	4, 0x7459411b
    80000736:	4112                	lw	sp,4(sp)
    80000738:	598e                	lw	s3,224(sp)
    8000073a:	4102                	lw	sp,0(sp)
    8000073c:	4854                	lw	a3,20(s0)
    8000073e:	4088                	lw	a0,0(s1)
    80000740:	40e2bbc7          	fmsub.s	fs7,ft5,fa4,fs0,rup
    80000744:	320c                	fld	fa1,32(a2)
    80000746:	c0d6                	sw	s5,64(sp)
    80000748:	0ff9                	addi	t6,t6,30
    8000074a:	40bd                	li	ra,15
    8000074c:	c027039b          	addiw	t2,a4,-1022
    80000750:	b02d                	j	7fffff7a <_start-0x86>
    80000752:	c0fa                	sw	t5,64(sp)
    80000754:	7f20                	ld	s0,120(a4)
    80000756:	4020                	lw	s0,64(s0)
    80000758:	b6e9                	j	80000322 <offset+0x2>
    8000075a:	7f0640bb          	.insn	4, 0x7f0640bb
    8000075e:	de0dbfbf 378b4018 	.insn	8, 0x378b4018de0dbfbf
    80000766:	4014                	lw	a3,0(s0)
    80000768:	8b19                	andi	a4,a4,6
    8000076a:	c11a                	sw	t1,128(sp)
    8000076c:	f530                	sd	a2,104(a0)
    8000076e:	411e                	lw	sp,196(sp)
    80000770:	c0b3d4e3          	bge	t2,a1,80000378 <der_6+0x48>
    80000774:	40ee597b          	.insn	4, 0x40ee597b
    80000778:	b5a0                	fsd	fs0,104(a1)
    8000077a:	4082                	lw	ra,0(sp)
    8000077c:	c936                	sw	a3,144(sp)
    8000077e:	402c                	lw	a1,64(s0)
    80000780:	661d                	lui	a2,0x7
    80000782:	40ee                	lw	ra,216(sp)
    80000784:	b7d6                	fsd	fs5,488(sp)
    80000786:	4094                	lw	a3,0(s1)
    80000788:	411338c7          	fmsub.s	fa7,ft6,fa7,fs0,rup
    8000078c:	8c09                	sub	s0,s0,a0
    8000078e:	3f6d                	addiw	t5,t5,-5
    80000790:	80ac                	.insn	2, 0x80ac
    80000792:	c0d9                	beqz	s1,80000818 <input_data+0x218>
    80000794:	9271                	srli	a2,a2,0x3c
    80000796:	4005                	c.li	zero,1
    80000798:	ffc9                	bnez	a5,80000732 <input_data+0x132>
    8000079a:	bf78                	fsd	fa4,248(a4)
    8000079c:	94c8                	.insn	2, 0x94c8
    8000079e:	4108                	lw	a0,0(a0)
    800007a0:	6bf1                	lui	s7,0x1c
    800007a2:	4110                	lw	a2,0(a0)
    800007a4:	3b54                	fld	fa3,176(a4)
    800007a6:	08afbea3          	sd	a0,157(t6)
    800007aa:	40fd                	li	ra,31
    800007ac:	a50d                	j	80000dce <input_data+0x7ce>
    800007ae:	50e7c08b          	.insn	4, 0x50e7c08b
    800007b2:	40a2                	lw	ra,8(sp)
    800007b4:	d752                	sw	s4,172(sp)
    800007b6:	c025                	beqz	s0,80000816 <input_data+0x216>
    800007b8:	3170                	fld	fa2,224(a0)
    800007ba:	c0d6                	sw	s5,64(sp)
    800007bc:	dc81                	beqz	s1,800006d4 <input_data+0xd4>
    800007be:	5b0cc11b          	.insn	4, 0x5b0cc11b
    800007c2:	bff1                	j	8000079e <input_data+0x19e>
    800007c4:	e204                	sd	s1,0(a2)
    800007c6:	c0a6                	sw	s1,64(sp)
    800007c8:	c0a69ccb          	fnmsub.s	fs9,fa3,fa0,fs8,rtz
    800007cc:	efd0                	sd	a2,152(a5)
    800007ce:	fa61bf67          	.insn	4, 0xfa61bf67
    800007d2:	40e0                	lw	s0,68(s1)
    800007d4:	baf4                	fsd	fa3,240(a3)
    800007d6:	c10e                	sw	gp,128(sp)
    800007d8:	d764                	sw	s1,108(a4)
    800007da:	4119                	li	sp,6
    800007dc:	c01c06f7          	.insn	4, 0xc01c06f7
    800007e0:	a9dc                	fsd	fa5,144(a1)
    800007e2:	c0c8                	sw	a0,4(s1)
    800007e4:	7c31                	lui	s8,0xfffec
    800007e6:	4107409b          	.insn	4, 0x4107409b
    800007ea:	401f 97db 40ed      	.insn	6, 0x40ed97db401f
    800007f0:	6d9c                	ld	a5,24(a1)
    800007f2:	3d2e                	fld	fs10,232(sp)
    800007f4:	41153daf          	amoor.d	s11,a7,(a0)
    800007f8:	fa6e                	sd	s11,304(sp)
    800007fa:	4005                	c.li	zero,1
    800007fc:	6ff4                	ld	a3,216(a5)
    800007fe:	bff1                	j	800007da <input_data+0x1da>
    80000800:	412e                	lw	sp,200(sp)
    80000802:	4111                	li	sp,4
    80000804:	d61f 401d ad8b      	.insn	6, 0xad8b401dd61f
    8000080a:	c11f 5c6a 4101      	.insn	6, 0x41015c6ac11f
    80000810:	3f20476f          	jal	a4,80004c02 <dstData+0x5ba>
    80000814:	8740                	.insn	2, 0x8740
    80000816:	c014                	sw	a3,0(s0)
    80000818:	c09440d3          	.insn	4, 0xc09440d3
    8000081c:	0f4d                	addi	t5,t5,19
    8000081e:	40fa                	lw	ra,156(sp)
    80000820:	e3d2                	sd	s4,448(sp)
    80000822:	c0e8                	sw	a0,68(s1)
    80000824:	0071                	c.nop	28
    80000826:	c102                	sw	zero,128(sp)
    80000828:	3f3a9f6b          	.insn	4, 0x3f3a9f6b
    8000082c:	4aed                	li	s5,27
    8000082e:	3316c107          	.insn	4, 0x3316c107
    80000832:	7e4c411b          	.insn	4, 0x7e4c411b
    80000836:	c0d6                	sw	s5,64(sp)
    80000838:	06b8                	addi	a4,sp,840
    8000083a:	53a0c10f          	.insn	4, 0x53a0c10f
    8000083e:	c03e                	sw	a5,0(sp)
    80000840:	f975                	bnez	a0,80000834 <input_data+0x234>
    80000842:	c10a                	sw	sp,128(sp)
    80000844:	bd7bbc6f          	jal	s8,7ffbc41a <_start-0x43be6>
    80000848:	7b4a                	ld	s6,176(sp)
    8000084a:	c0dd                	beqz	s1,800008f0 <input_data+0x2f0>
    8000084c:	74c5                	lui	s1,0xffff1
    8000084e:	c066                	sw	s9,0(sp)
    80000850:	2911                	addiw	s2,s2,4
    80000852:	c0a1                	beqz	s1,80000892 <input_data+0x292>
    80000854:	4730                	lw	a2,72(a4)
    80000856:	401f d652 c037      	.insn	6, 0xc037d652401f
    8000085c:	1f04                	addi	s1,sp,944
    8000085e:	3fa9                	addiw	t6,t6,-22
    80000860:	f599                	bnez	a1,8000076e <input_data+0x16e>
    80000862:	403e                	.insn	2, 0x403e
    80000864:	79a9                	lui	s3,0xfffea
    80000866:	e91040eb          	.insn	4, 0xe91040eb
    8000086a:	c02d                	beqz	s0,800008cc <input_data+0x2cc>
    8000086c:	1306                	slli	t1,t1,0x21
    8000086e:	40b0                	lw	a2,64(s1)
    80000870:	bf5d579b          	.insn	4, 0xbf5d579b
    80000874:	4112b593          	sltiu	a1,t0,1041
    80000878:	f668                	sd	a0,232(a2)
    8000087a:	40e1                	li	ra,24
    8000087c:	3f4d38ef          	jal	a7,800d3c70 <_end+0xc2c70>
    80000880:	8366                	mv	t1,s9
    80000882:	40fa                	lw	ra,156(sp)
    80000884:	40c6                	lw	ra,80(sp)
    80000886:	40e6                	lw	ra,88(sp)
    80000888:	4b40                	lw	s0,20(a4)
    8000088a:	4109                	li	sp,2
    8000088c:	0cd0                	addi	a2,sp,596
    8000088e:	c065                	beqz	s0,8000096e <input_data+0x36e>
    80000890:	4fdf 408f 30fc      	.insn	6, 0x30fc408f4fdf
    80000896:	177a411b          	.insn	4, 0x177a411b
    8000089a:	4a174087          	.insn	4, 0x4a174087
    8000089e:	bf92                	fsd	ft4,504(sp)
    800008a0:	e571                	bnez	a0,8000096c <input_data+0x36c>
    800008a2:	c0ae                	sw	a1,64(sp)
    800008a4:	bb88                	fsd	fa0,48(a5)
    800008a6:	401a                	.insn	2, 0x401a
    800008a8:	4025                	c.li	zero,9
    800008aa:	3f59                	addiw	t5,t5,-10
    800008ac:	674a                	ld	a4,144(sp)
    800008ae:	410c                	lw	a1,0(a0)
    800008b0:	ab69                	j	80000e4a <input_data+0x84a>
    800008b2:	401f 650a c10e      	.insn	6, 0xc10e650a401f
    800008b8:	45d8                	lw	a4,12(a1)
    800008ba:	40c6                	lw	ra,80(sp)
    800008bc:	209f 4064 c44c      	.insn	6, 0xc44c4064209f
    800008c2:	e5efc0a3          	.insn	4, 0xe5efc0a3
    800008c6:	c11e                	sw	t2,128(sp)
    800008c8:	51c6                	lw	gp,112(sp)
    800008ca:	03fbbf97          	auipc	t6,0x3fbb
    800008ce:	c045                	beqz	s0,8000096e <input_data+0x36e>
    800008d0:	c298                	sw	a4,0(a3)
    800008d2:	c0a8                	sw	a0,64(s1)
    800008d4:	8690                	.insn	2, 0x8690
    800008d6:	c05a                	sw	s6,0(sp)
    800008d8:	5601                	li	a2,-32
    800008da:	c10e                	sw	gp,128(sp)
    800008dc:	bf25dd7f 41013695 	.insn	20, 0xbf602a2440c21aa04117997641013695bf25dd7f
    800008e4:	41179976 40c21aa0 
    800008ec:	bf602a24 
    800008f0:	c0f55437          	lui	s0,0xc0f55
    800008f4:	b988                	fsd	fa0,48(a1)
    800008f6:	c06e                	sw	s11,0(sp)
    800008f8:	be88                	fsd	fa0,56(a3)
    800008fa:	4054                	lw	a3,4(s0)
    800008fc:	7b74                	ld	a3,240(a4)
    800008fe:	7026c093          	xori	ra,a3,1794
    80000902:	40b1                	li	ra,12
    80000904:	a1f5                	j	80000df0 <input_data+0x7f0>
    80000906:	c0b2                	sw	a2,64(sp)
    80000908:	a8d6                	fsd	fs5,80(sp)
    8000090a:	a8ca3f87          	fld	ft11,-1396(s4)
    8000090e:	40bc                	lw	a5,64(s1)
    80000910:	40bc5747          	fmsub.s	fa4,fs8,fa1,fs0,unknown
    80000914:	6175                	addi	sp,sp,368
    80000916:	4104                	lw	s1,0(a0)
    80000918:	8b89                	andi	a5,a5,2
    8000091a:	40f8                	lw	a4,68(s1)
    8000091c:	f40e                	sd	gp,40(sp)
    8000091e:	40ee                	lw	ra,216(sp)
    80000920:	bf90                	fsd	fa2,56(a5)
    80000922:	c072                	sw	t3,0(sp)
    80000924:	ea7d                	bnez	a2,80000a1a <input_data+0x41a>
    80000926:	c04d                	beqz	s0,800009c8 <input_data+0x3c8>
    80000928:	de72                	sw	t3,60(sp)
    8000092a:	4051                	c.li	zero,20
    8000092c:	ffde                	sd	s7,504(sp)
    8000092e:	40bc                	lw	a5,64(s1)
    80000930:	9d69                	.insn	2, 0x9d69
    80000932:	aac9c0c3          	fmadd.d	ft1,fs3,fa2,fs5,rmm
    80000936:	bec8                	fsd	fa0,184(a3)
    80000938:	c0e7f3a3          	.insn	4, 0xc0e7f3a3
    8000093c:	f0cc                	sd	a1,160(s1)
    8000093e:	d4433fd7          	.insn	4, 0xd4433fd7
    80000942:	a74ec09b          	.insn	4, 0xa74ec09b
    80000946:	a8a3408b          	.insn	4, 0xa8a3408b
    8000094a:	4100                	lw	s0,0(a0)
    8000094c:	00f6                	slli	ra,ra,0x1d
    8000094e:	4106                	lw	sp,64(sp)
    80000950:	3fbad563          	bge	s5,s11,80000d3a <input_data+0x73a>
    80000954:	f232                	sd	a2,288(sp)
    80000956:	40ed                	li	ra,27
    80000958:	698c                	ld	a1,16(a1)
    8000095a:	c0ca                	sw	s2,64(sp)
    8000095c:	b190                	fsd	fa2,32(a1)
    8000095e:	c0f6                	sw	t4,64(sp)
    80000960:	e47e                	sd	t6,8(sp)
    80000962:	bfec                	fsd	fa1,248(a5)
    80000964:	c1157ad3          	.insn	4, 0xc1157ad3
    80000968:	4109c2eb          	.insn	4, 0x4109c2eb
    8000096c:	4100ea77          	.insn	4, 0x4100ea77
    80000970:	5dec                	lw	a1,124(a1)
    80000972:	4086                	lw	ra,64(sp)
    80000974:	597d                	li	s2,-1
    80000976:	c0cc                	sw	a1,4(s1)
    80000978:	c00106f7          	.insn	4, 0xc00106f7
    8000097c:	00ed                	addi	ra,ra,27 # c23ec71d <_end+0x423db71d>
    8000097e:	72f3c097          	auipc	ra,0x72f3c
    80000982:	40d4                	lw	a3,4(s1)
    80000984:	d018                	sw	a4,32(s0)
    80000986:	27033ec3          	.insn	4, 0x27033ec3
    8000098a:	5504bff3          	csrrc	t6,0x550,s1
    8000098e:	4051                	c.li	zero,20
    80000990:	7896                	ld	a7,352(sp)
    80000992:	3f5c                	fld	fa5,184(a4)
    80000994:	6a0c                	ld	a1,16(a2)
    80000996:	c0a1                	beqz	s1,800009d6 <input_data+0x3d6>
    80000998:	411cb4c7          	fmsub.s	fs1,fs9,fa7,fs0,rup
    8000099c:	bcb6                	fsd	fa3,120(sp)
    8000099e:	3f0a                	fld	ft10,160(sp)
    800009a0:	5d3e                	lw	s10,236(sp)
    800009a2:	bf05                	j	800008d2 <input_data+0x2d2>
    800009a4:	0d24                	addi	s1,sp,664
    800009a6:	d82740ab          	.insn	4, 0xd82740ab
    800009aa:	c0cc                	sw	a1,4(s1)
    800009ac:	1078                	addi	a4,sp,44
    800009ae:	903ac107          	.insn	4, 0x903ac107
    800009b2:	bf31                	j	800008ce <input_data+0x2ce>
    800009b4:	f972                	sd	t3,176(sp)
    800009b6:	c084                	sw	s1,0(s1)
    800009b8:	2d1f c0a9 0c8b      	.insn	6, 0x0c8bc0a92d1f
    800009be:	4114                	lw	a3,0(a0)
    800009c0:	6db6                	ld	s11,328(sp)
    800009c2:	410e                	lw	sp,192(sp)
    800009c4:	408c9833          	.insn	4, 0x408c9833
    800009c8:	bfa9c02b          	.insn	4, 0xbfa9c02b
    800009cc:	5f61                	li	t5,-8
    800009ce:	c055c087          	.insn	4, 0xc055c087
    800009d2:	40d6                	lw	ra,84(sp)
    800009d4:	cdc4                	sw	s1,28(a1)
    800009d6:	3e19                	addiw	t3,t3,-26
    800009d8:	9d71                	.insn	2, 0x9d71
    800009da:	4114                	lw	a3,0(a0)
    800009dc:	bf0431cf          	.insn	4, 0xbf0431cf
    800009e0:	36f8                	fld	fa4,232(a3)
    800009e2:	c099                	beqz	s1,800009e8 <input_data+0x3e8>
    800009e4:	e386                	sd	ra,448(sp)
    800009e6:	40f6                	lw	ra,92(sp)
    800009e8:	410d3337          	lui	t1,0x410d3
    800009ec:	4196                	lw	gp,68(sp)
    800009ee:	3f31                	addiw	t5,t5,-20
    800009f0:	ee0a                	sd	sp,280(sp)
    800009f2:	f6e0410f          	.insn	4, 0xf6e0410f
    800009f6:	c070                	sw	a2,68(s0)
    800009f8:	4108974f          	fnmadd.s	fa4,fa7,fa6,fs0,rtz
    800009fc:	f949                	bnez	a0,8000098e <input_data+0x38e>
    800009fe:	4104                	lw	s1,0(a0)
    80000a00:	3156                	fld	ft2,368(sp)
    80000a02:	c11d                	beqz	a0,80000a28 <input_data+0x428>
    80000a04:	b004                	fsd	fs1,32(s0)
    80000a06:	4109                	li	sp,2
    80000a08:	e32a                	sd	a0,384(sp)
    80000a0a:	4080                	lw	s0,0(s1)
    80000a0c:	0100                	addi	s0,sp,128
    80000a0e:	40d5                	li	ra,21
    80000a10:	afd1                	j	800011e4 <input_data+0xbe4>
    80000a12:	406cbfcb          	fnmsub.s	ft11,fs9,ft6,fs0,rup
    80000a16:	4040                	lw	s0,4(s0)
    80000a18:	6d09                	lui	s10,0x2
    80000a1a:	1844c0e3          	blt	s1,tp,8000139a <input_data+0xd9a>
    80000a1e:	c09e                	sw	t2,64(sp)
    80000a20:	c0c6ab6f          	jal	s6,7ff6ae2c <_start-0x951d4>
    80000a24:	1e3c                	addi	a5,sp,824
    80000a26:	c108                	sw	a0,0(a0)
    80000a28:	14fd                	addi	s1,s1,-1 # ffffffffffff0fff <_end+0xffffffff7ffdffff>
    80000a2a:	2b563f2b          	.insn	4, 0x2b563f2b
    80000a2e:	7117404b          	fnmsub.s	ft0,fa4,fa7,fa4,rmm
    80000a32:	c10a                	sw	sp,128(sp)
    80000a34:	6120                	ld	s0,64(a0)
    80000a36:	c593c0cf          	.insn	4, 0xc593c0cf
    80000a3a:	bd3d                	j	80000878 <input_data+0x278>
    80000a3c:	404d                	c.li	zero,19
    80000a3e:	40b4                	lw	a3,64(s1)
    80000a40:	09ea                	slli	s3,s3,0x1a
    80000a42:	c106                	sw	ra,128(sp)
    80000a44:	5e1a                	lw	t3,164(sp)
    80000a46:	40c4                	lw	s1,4(s1)
    80000a48:	b128                	fsd	fa0,96(a0)
    80000a4a:	c110                	sw	a2,0(a0)
    80000a4c:	4cb6                	lw	s9,76(sp)
    80000a4e:	40e9                	li	ra,26
    80000a50:	c044e9a3          	.insn	4, 0xc044e9a3
    80000a54:	c0321b8f          	.insn	4, 0xc0321b8f
    80000a58:	48fc                	lw	a5,84(s1)
    80000a5a:	e23f40e7          	.insn	4, 0xe23f40e7
    80000a5e:	c0f1                	beqz	s1,80000b22 <input_data+0x522>
    80000a60:	2c6d                	addiw	s8,s8,27 # fffffffffffec01b <_end+0xffffffff7ffdb01b>
    80000a62:	408e                	lw	ra,192(sp)
    80000a64:	bcdc                	fsd	fa5,184(s1)
    80000a66:	09043fbf 11e44108 	.insn	8, 0x11e4410809043fbf
    80000a6e:	c06c                	sw	a1,68(s0)
    80000a70:	a30d                	j	80000f92 <input_data+0x992>
    80000a72:	410e                	lw	sp,192(sp)
    80000a74:	aca8                	fsd	fa0,88(s1)
    80000a76:	1f04c087          	.insn	4, 0x1f04c087
    80000a7a:	4109                	li	sp,2
    80000a7c:	1e32                	slli	t3,t3,0x2c
    80000a7e:	bf3d                	j	800009bc <input_data+0x3bc>
    80000a80:	e48c                	sd	a1,8(s1)
    80000a82:	c0a2                	sw	s0,64(sp)
    80000a84:	63f5                	lui	t2,0x1d
    80000a86:	c025                	beqz	s0,80000ae6 <input_data+0x4e6>
    80000a88:	9008                	.insn	2, 0x9008
    80000a8a:	e497bf9b          	.insn	4, 0xe497bf9b
    80000a8e:	40cc                	lw	a1,4(s1)
    80000a90:	98a2                	add	a7,a7,s0
    80000a92:	c0a9                	beqz	s1,80000ad4 <input_data+0x4d4>
    80000a94:	6aa1                	lui	s5,0x8
    80000a96:	3ed4                	fld	fa3,184(a3)
    80000a98:	40bc94fb          	.insn	4, 0x40bc94fb
    80000a9c:	9551                	srai	a0,a0,0x34
    80000a9e:	40ba                	lw	ra,140(sp)
    80000aa0:	c0a72f6f          	jal	t5,7ff72eaa <_start-0x8d156>
    80000aa4:	c10ac0cf          	fnmadd.s	ft1,fs5,fa6,fs8,rmm
    80000aa8:	a8da                	fsd	fs6,80(sp)
    80000aaa:	c09c                	sw	a5,0(s1)
    80000aac:	8bca                	mv	s7,s2
    80000aae:	4091                	li	ra,4
    80000ab0:	bf819c6b          	.insn	4, 0xbf819c6b
    80000ab4:	98d0                	.insn	2, 0x98d0
    80000ab6:	3f95                	addiw	t6,t6,-27 # ffffffff83fbb8af <_end+0xffffffff03faa8af>
    80000ab8:	b988                	fsd	fa0,48(a1)
    80000aba:	c11a                	sw	t1,128(sp)
    80000abc:	9104                	.insn	2, 0x9104
    80000abe:	3f09                	addiw	t5,t5,-30
    80000ac0:	bf93ee67          	.insn	4, 0xbf93ee67
    80000ac4:	8ef0                	.insn	2, 0x8ef0
    80000ac6:	c114                	sw	a3,0(a0)
    80000ac8:	40b8                	lw	a4,64(s1)
    80000aca:	c046                	sw	a7,0(sp)
    80000acc:	2a02                	fld	fs4,0(sp)
    80000ace:	40f1                	li	ra,28
    80000ad0:	839d                	srli	a5,a5,0x7
    80000ad2:	40f5                	li	ra,29
    80000ad4:	ddaa                	sw	a0,248(sp)
    80000ad6:	c106                	sw	ra,128(sp)
    80000ad8:	4489                	li	s1,2
    80000ada:	c0c2                	sw	a6,64(sp)
    80000adc:	c0bd9e6b          	.insn	4, 0xc0bd9e6b
    80000ae0:	c259                	beqz	a2,80000b66 <input_data+0x566>
    80000ae2:	c0ed                	beqz	s1,80000bc4 <input_data+0x5c4>
    80000ae4:	0d45                	addi	s10,s10,17 # 2011 <_start-0x7fffdfef>
    80000ae6:	c016                	sw	t0,0(sp)
    80000ae8:	17fa                	slli	a5,a5,0x3e
    80000aea:	40c8                	lw	a0,4(s1)
    80000aec:	87ad                	srai	a5,a5,0xb
    80000aee:	c11f b5d4 40c5      	.insn	6, 0x40c5b5d4c11f
    80000af4:	adf4                	fsd	fa3,216(a1)
    80000af6:	411e                	lw	sp,196(sp)
    80000af8:	b91f 40db 9c85      	.insn	6, 0x9c8540dbb91f
    80000afe:	4116                	lw	sp,68(sp)
    80000b00:	1f0a                	slli	t5,t5,0x22
    80000b02:	d6f340f7          	.insn	4, 0xd6f340f7
    80000b06:	c11c                	sw	a5,0(a0)
    80000b08:	4067a943          	fmadd.s	fs2,fa5,ft6,fs0,rdn
    80000b0c:	402dd107          	.insn	4, 0x402dd107
    80000b10:	40863fff 40740037 	.insn	16, 0xc0a82778bfff90c94074003740863fff
    80000b18:	bfff90c9 c0a82778 
    80000b20:	6e85                	lui	t4,0x1
    80000b22:	40c1                	li	ra,16
    80000b24:	c0ef844f          	fnmadd.s	fs0,ft11,fa4,fs8,rne
    80000b28:	03d1                	addi	t2,t2,20 # 1d014 <_start-0x7ffe2fec>
    80000b2a:	402d                	c.li	zero,11
    80000b2c:	c0a8de8f          	.insn	4, 0xc0a8de8f
    80000b30:	680e                	ld	a6,192(sp)
    80000b32:	c0ad                	beqz	s1,80000b94 <input_data+0x594>
    80000b34:	c0ff5daf          	.insn	4, 0xc0ff5daf
    80000b38:	344c                	fld	fa1,168(s0)
    80000b3a:	c110                	sw	a2,0(a0)
    80000b3c:	c05a2f6f          	jal	t5,7ffa3740 <_start-0x5c8c0>
    80000b40:	6184                	ld	s1,0(a1)
    80000b42:	c20d4117          	auipc	sp,0xc20d4
    80000b46:	92754057          	.insn	4, 0x92754057
    80000b4a:	3eb5                	addiw	t4,t4,-19 # fed <_start-0x7ffff013>
    80000b4c:	27f6                	fld	fa5,344(sp)
    80000b4e:	bf89                	j	80000aa0 <input_data+0x4a0>
    80000b50:	227e                	fld	ft4,472(sp)
    80000b52:	d9a7c10f          	.insn	4, 0xd9a7c10f
    80000b56:	8e004103          	lbu	sp,-1824(zero) # fffffffffffff8e0 <_end+0xffffffff7ffee8e0>
    80000b5a:	bf31                	j	80000a76 <input_data+0x476>
    80000b5c:	c048                	sw	a0,4(s0)
    80000b5e:	3fb6                	fld	ft11,360(sp)
    80000b60:	d73a                	sw	a4,172(sp)
    80000b62:	560e40a3          	.insn	4, 0x560e40a3
    80000b66:	c106                	sw	ra,128(sp)
    80000b68:	3b21                	addiw	s6,s6,-24
    80000b6a:	40e2                	lw	ra,24(sp)
    80000b6c:	dbf5                	beqz	a5,80000b60 <input_data+0x560>
    80000b6e:	3fb9                	addiw	t6,t6,-18
    80000b70:	cf92                	sw	tp,220(sp)
    80000b72:	bf85                	j	80000ae2 <input_data+0x4e2>
    80000b74:	c936                	sw	a3,144(sp)
    80000b76:	40c1                	li	ra,16
    80000b78:	a7df 4026 81ae      	.insn	6, 0x81ae4026a7df
    80000b7e:	40c9                	li	ra,18
    80000b80:	408f4083          	lbu	ra,1032(t5)
    80000b84:	d248                	sw	a0,36(a2)
    80000b86:	c11a                	sw	t1,128(sp)
    80000b88:	c10917af          	.insn	4, 0xc10917af
    80000b8c:	e111                	bnez	a0,80000b90 <input_data+0x590>
    80000b8e:	3fd9                	addiw	t6,t6,-10
    80000b90:	40c0f447          	fmsub.s	fs0,ft1,fa2,fs0
    80000b94:	4452                	lw	s0,20(sp)
    80000b96:	c0e4                	sw	s1,68(s1)
    80000b98:	7d9c                	ld	a5,56(a1)
    80000b9a:	4111                	li	sp,4
    80000b9c:	e49f 3fe6 3d1f      	.insn	6, 0x3d1f3fe6e49f
    80000ba2:	40ad                	li	ra,11
    80000ba4:	6b9c                	ld	a5,16(a5)
    80000ba6:	407f 76c9 c09e 76de 	.insn	18, 0xc075a86dbfeb9664bea176dec09e76c9407f
    80000bae:	bea1 9664 bfeb a86d 
    80000bb6:	c075 
    80000bb8:	a03e                	fsd	fa5,0(sp)
    80000bba:	40be                	lw	ra,204(sp)
    80000bbc:	8a72                	mv	s4,t3
    80000bbe:	4119                	li	sp,6
    80000bc0:	bf41420b          	.insn	4, 0xbf41420b
    80000bc4:	1794                	addi	a3,sp,992
    80000bc6:	411a                	lw	sp,132(sp)
    80000bc8:	be909247          	.insn	4, 0xbe909247
    80000bcc:	732a                	ld	t1,168(sp)
    80000bce:	40a6                	lw	ra,72(sp)
    80000bd0:	ff30                	sd	a2,120(a4)
    80000bd2:	4084                	lw	s1,0(s1)
    80000bd4:	c0e2d4eb          	.insn	4, 0xc0e2d4eb
    80000bd8:	c0a08197          	auipc	gp,0xc0a08
    80000bdc:	8534                	.insn	2, 0x8534
    80000bde:	c0a5                	beqz	s1,80000c3e <input_data+0x63e>
    80000be0:	f239                	bnez	a2,80000b26 <input_data+0x526>
    80000be2:	407a                	.insn	2, 0x407a
    80000be4:	c0363ea7          	fsd	ft3,-995(a2) # 6c1d <_start-0x7fff93e3>
    80000be8:	40a677fb          	.insn	4, 0x40a677fb
    80000bec:	da12                	sw	tp,52(sp)
    80000bee:	40be                	lw	ra,204(sp)
    80000bf0:	881e                	mv	a6,t2
    80000bf2:	40a6                	lw	ra,72(sp)
    80000bf4:	c09763c7          	fmsub.s	ft7,fa4,fs1,fs8,unknown
    80000bf8:	9171                	srli	a0,a0,0x3c
    80000bfa:	c0c4                	sw	s1,4(s1)
    80000bfc:	582e                	lw	a6,232(sp)
    80000bfe:	c03e                	sw	a5,0(sp)
    80000c00:	07fd                	addi	a5,a5,31
    80000c02:	c0d0                	sw	a2,4(s1)
    80000c04:	c028b86b          	.insn	4, 0xc028b86b
    80000c08:	403d73ef          	jal	t2,800d880a <_end+0xc780a>
    80000c0c:	c41d                	beqz	s0,80000c3a <input_data+0x63a>
    80000c0e:	36a8c107          	.insn	4, 0x36a8c107
    80000c12:	3fbe                	fld	ft11,488(sp)
    80000c14:	60d9                	lui	ra,0x16
    80000c16:	e875c087          	.insn	4, 0xe875c087
    80000c1a:	c076                	sw	t4,0(sp)
    80000c1c:	40ee                	lw	ra,216(sp)
    80000c1e:	402e                	.insn	2, 0x402e
    80000c20:	4d7f bf1a 5e0f 3faf 	.insn	18, 0x4ff4bfdef135c09034f43faf5e0fbf1a4d7f
    80000c28:	34f4 c090 f135 bfde 
    80000c30:	4ff4 
    80000c32:	40d5                	li	ra,21
    80000c34:	3eaebcc7          	.insn	4, 0x3eaebcc7
    80000c38:	720d                	lui	tp,0xfffe3
    80000c3a:	0e17402f          	.insn	4, 0x0e17402f
    80000c3e:	bf98                	fsd	fa4,56(a5)
    80000c40:	bfbb55e7          	.insn	4, 0xbfbb55e7
    80000c44:	62ed                	lui	t0,0x1b
    80000c46:	c100                	sw	s0,0(a0)
    80000c48:	aee1                	j	80001020 <input_data+0xa20>
    80000c4a:	c102                	sw	zero,128(sp)
    80000c4c:	f701                	bnez	a4,80000b54 <input_data+0x554>
    80000c4e:	4015                	c.li	zero,5
    80000c50:	ca5f c11f a17b      	.insn	6, 0xa17bc11fca5f
    80000c56:	bef0c063          	blt	ra,a5,80000036 <vfexp_f32m1+0x26>
    80000c5a:	c0f5                	beqz	s1,80000d3e <input_data+0x73e>
    80000c5c:	410597d3          	.insn	4, 0x410597d3
    80000c60:	c0e1c637          	lui	a2,0xc0e1c
    80000c64:	921f c0e0 b322      	.insn	6, 0xb322c0e0921f
    80000c6a:	c0ce                	sw	s3,64(sp)
    80000c6c:	a698                	fsd	fa4,8(a3)
    80000c6e:	411e                	lw	sp,196(sp)
    80000c70:	a4f8                	fsd	fa4,200(s1)
    80000c72:	c03d                	beqz	s0,80000cd8 <input_data+0x6d8>
    80000c74:	f3d8                	sd	a4,160(a5)
    80000c76:	405f 60f0 40bb      	.insn	6, 0x40bb60f0405f
    80000c7c:	2b99                	addiw	s7,s7,6 # 1c006 <_start-0x7ffe3ffa>
    80000c7e:	1aa8bfdb          	.insn	4, 0x1aa8bfdb
    80000c82:	bf19                	j	80000b98 <input_data+0x598>
    80000c84:	b7f2                	fsd	ft8,488(sp)
    80000c86:	411f a18c c07c      	.insn	6, 0xc07ca18c411f
    80000c8c:	cf48                	sw	a0,28(a4)
    80000c8e:	c0ee                	sw	s11,64(sp)
    80000c90:	f66c                	sd	a1,232(a2)
    80000c92:	c096                	sw	t0,64(sp)
    80000c94:	17a0                	addi	s0,sp,1000
    80000c96:	3f90                	fld	fa2,56(a5)
    80000c98:	b21c                	fsd	fa5,32(a2)
    80000c9a:	bf6d                	j	80000c54 <input_data+0x654>
    80000c9c:	e919                	bnez	a0,80000cb2 <input_data+0x6b2>
    80000c9e:	c104                	sw	s1,0(a0)
    80000ca0:	b470                	fsd	fa2,232(s0)
    80000ca2:	2a064033          	.insn	4, 0x2a064033
    80000ca6:	c0ff 308f 4114 5285 	.insn	18, 0xbfd3e397c0bec17dc08752854114308fc0ff
    80000cae:	c087 c17d c0be e397 
    80000cb6:	bfd3 
    80000cb8:	6072                	.insn	2, 0x6072
    80000cba:	c0a9                	beqz	s1,80000cfc <input_data+0x6fc>
    80000cbc:	6da4                	ld	s1,88(a1)
    80000cbe:	3ec4                	fld	fs1,184(a3)
    80000cc0:	a062                	fsd	fs8,0(sp)
    80000cc2:	c05c                	sw	a5,4(s0)
    80000cc4:	2ec5                	addiw	t4,t4,17
    80000cc6:	c0d1                	beqz	s1,80000d4a <input_data+0x74a>
    80000cc8:	2c8d                	addiw	s9,s9,3
    80000cca:	4102                	lw	sp,0(sp)
    80000ccc:	eef0                	sd	a2,216(a3)
    80000cce:	40c0                	lw	s0,4(s1)
    80000cd0:	411fa643          	fmadd.s	fa2,ft11,fa7,fs0,rdn
    80000cd4:	6aa9                	lui	s5,0xa
    80000cd6:	c041                	beqz	s0,80000d56 <input_data+0x756>
    80000cd8:	82d8                	.insn	2, 0x82d8
    80000cda:	c11f a5f0 40b5      	.insn	6, 0x40b5a5f0c11f
    80000ce0:	c11fb803          	ld	a6,-1007(t6)
    80000ce4:	284a                	fld	fa6,144(sp)
    80000ce6:	4071                	c.li	zero,28
    80000ce8:	abd8                	fsd	fa4,144(a5)
    80000cea:	4114                	lw	a3,0(a0)
    80000cec:	c091d2e7          	.insn	4, 0xc091d2e7
    80000cf0:	c0df bf30 0fe0      	.insn	6, 0x0fe0bf30c0df
    80000cf6:	401e                	.insn	2, 0x401e
    80000cf8:	d1b9                	beqz	a1,80000c3e <input_data+0x63e>
    80000cfa:	4108                	lw	a0,0(a0)
    80000cfc:	8abd                	andi	a3,a3,15
    80000cfe:	c0f9                	beqz	s1,80000dc4 <input_data+0x7c4>
    80000d00:	40a0                	lw	s0,64(s1)
    80000d02:	40ce                	lw	ra,208(sp)
    80000d04:	0408                	addi	a0,sp,512
    80000d06:	40c1                	li	ra,16
    80000d08:	4432                	lw	s0,12(sp)
    80000d0a:	c116                	sw	t0,128(sp)
    80000d0c:	411f9ce3          	bne	t6,a7,80001924 <input_data+0x1324>
    80000d10:	2935                	addiw	s2,s2,13
    80000d12:	3841c113          	xori	sp,gp,900
    80000d16:	408a                	lw	ra,128(sp)
    80000d18:	bd85                	j	80000b88 <input_data+0x588>
    80000d1a:	4106                	lw	sp,64(sp)
    80000d1c:	6534                	ld	a3,72(a0)
    80000d1e:	8abdc0f7          	.insn	4, 0x8abdc0f7
    80000d22:	7b6740b3          	.insn	4, 0x7b6740b3
    80000d26:	bf5c                	fsd	fa5,184(a4)
    80000d28:	17f4                	addi	a3,sp,1004
    80000d2a:	c068                	sw	a0,68(s0)
    80000d2c:	9d84                	.insn	2, 0x9d84
    80000d2e:	c000                	sw	s0,0(s0)
    80000d30:	8566                	mv	a0,s9
    80000d32:	3f8e                	fld	ft11,224(sp)
    80000d34:	dd3c                	sw	a5,120(a0)
    80000d36:	beb1                	j	80000892 <input_data+0x292>
    80000d38:	73b8                	ld	a4,96(a5)
    80000d3a:	817cc00b          	.insn	4, 0x817cc00b
    80000d3e:	41253feb          	.insn	4, 0x41253feb
    80000d42:	c115                	beqz	a0,80000d66 <input_data+0x766>
    80000d44:	40deebd7          	.insn	4, 0x40deebd7
    80000d48:	e01e                	sd	t2,0(sp)
    80000d4a:	c119                	beqz	a0,80000d50 <input_data+0x750>
    80000d4c:	c02c                	sw	a1,64(s0)
    80000d4e:	4b5ac113          	xori	sp,s5,1205
    80000d52:	9099c08b          	.insn	4, 0x9099c08b
    80000d56:	4115                	li	sp,5
    80000d58:	c4f8                	sw	a4,76(s1)
    80000d5a:	bf3e                	fsd	fa5,440(sp)
    80000d5c:	c27f 4000 ee10 410d 	.insn	18, 0xaeec40ffdbe240c052fc410dee104000c27f
    80000d64:	52fc 40c0 dbe2 40ff 
    80000d6c:	aeec 
    80000d6e:	8b1e40e3          	blt	t3,a7,8000060e <input_data+0xe>
    80000d72:	4027c063          	blt	a5,sp,80001172 <input_data+0xb72>
    80000d76:	97f240c7          	.insn	4, 0x97f240c7
    80000d7a:	beb6                	fsd	fa3,376(sp)
    80000d7c:	b902                	fsd	ft0,176(sp)
    80000d7e:	496b409b          	.insn	4, 0x496b409b
    80000d82:	4000                	lw	s0,0(s0)
    80000d84:	37b5                	addiw	a5,a5,-19
    80000d86:	e313c03f 241bc0fe 	.insn	8, 0x241bc0fee313c03f
    80000d8e:	4105                	li	sp,1
    80000d90:	b49d                	j	800007f6 <input_data+0x1f6>
    80000d92:	410a                	lw	sp,128(sp)
    80000d94:	324a                	fld	ft4,176(sp)
    80000d96:	c0ed                	beqz	s1,80000e78 <input_data+0x878>
    80000d98:	c00095ab          	.insn	4, 0xc00095ab
    80000d9c:	2179                	addiw	sp,sp,30 # 420d4b60 <_start-0x3df2b4a0>
    80000d9e:	4082                	lw	ra,0(sp)
    80000da0:	00bd                	addi	ra,ra,15 # 1600f <_start-0x7ffe9ff1>
    80000da2:	c032                	sw	a2,0(sp)
    80000da4:	6d6a                	ld	s10,152(sp)
    80000da6:	3f2e                	fld	ft10,232(sp)
    80000da8:	80d4                	.insn	2, 0x80d4
    80000daa:	40f1                	li	ra,28
    80000dac:	0c84                	addi	s1,sp,592
    80000dae:	40aa                	lw	ra,136(sp)
    80000db0:	6b55                	lui	s6,0x15
    80000db2:	be61                	j	8000094a <input_data+0x34a>
    80000db4:	6f1e                	ld	t5,448(sp)
    80000db6:	be42                	fsd	fa6,312(sp)
    80000db8:	458e                	lw	a1,192(sp)
    80000dba:	c11a                	sw	t1,128(sp)
    80000dbc:	4109278f          	.insn	4, 0x4109278f
    80000dc0:	4229                	li	tp,10
    80000dc2:	bf0e                	fsd	ft3,440(sp)
    80000dc4:	40c45593          	srai	a1,s0,0xc
    80000dc8:	fccc                	sd	a1,184(s1)
    80000dca:	c0a5                	beqz	s1,80000e2a <input_data+0x82a>
    80000dcc:	ceb1                	beqz	a3,80000e28 <input_data+0x828>
    80000dce:	9121c0af          	.insn	4, 0x9121c0af
    80000dd2:	dd204033          	.insn	4, 0xdd204033
    80000dd6:	c0b8c0bf fd4440c0 	.insn	8, 0xfd4440c0c0b8c0bf
    80000dde:	3fae                	fld	ft11,232(sp)
    80000de0:	c0f0e2c3          	fmadd.s	ft5,ft1,fa5,fs8,unknown
    80000de4:	88f0                	.insn	2, 0x88f0
    80000de6:	c108                	sw	a0,0(a0)
    80000de8:	fdd2                	sd	s4,248(sp)
    80000dea:	c020                	sw	s0,64(s0)
    80000dec:	c0626c27          	.insn	4, 0xc0626c27
    80000df0:	f11d                	bnez	a0,80000d16 <input_data+0x716>
    80000df2:	40de                	lw	ra,212(sp)
    80000df4:	5975                	li	s2,-3
    80000df6:	3ebc                	fld	fa5,120(a3)
    80000df8:	f5cd                	bnez	a1,80000da2 <input_data+0x7a2>
    80000dfa:	40b0                	lw	a2,64(s1)
    80000dfc:	465a                	lw	a2,148(sp)
    80000dfe:	d9eac103          	lbu	sp,-610(s5) # 9d9e <_start-0x7fff6262>
    80000e02:	40e5                	li	ra,25
    80000e04:	5276                	lw	tp,124(sp)
    80000e06:	40b5                	li	ra,13
    80000e08:	5d29                	li	s10,-22
    80000e0a:	40f6                	lw	ra,92(sp)
    80000e0c:	1a65                	addi	s4,s4,-7
    80000e0e:	c059                	beqz	s0,80000e94 <input_data+0x894>
    80000e10:	2451                	addiw	s0,s0,20 # ffffffffc0f55014 <_end+0xffffffff40f44014>
    80000e12:	4111                	li	sp,4
    80000e14:	858c                	.insn	2, 0x858c
    80000e16:	c055                	beqz	s0,80000eba <input_data+0x8ba>
    80000e18:	4109e8ef          	jal	a7,8009f228 <_end+0x8e228>
    80000e1c:	48b2                	lw	a7,12(sp)
    80000e1e:	b3bc3f57          	vnsrl.wi	v30,v27,24
    80000e22:	4035                	c.li	zero,13
    80000e24:	5d18                	lw	a4,56(a0)
    80000e26:	c0c4                	sw	s1,4(s1)
    80000e28:	0386                	slli	t2,t2,0x1
    80000e2a:	4049                	c.li	zero,18
    80000e2c:	40a24507          	.insn	4, 0x40a24507
    80000e30:	8bb9                	andi	a5,a5,14
    80000e32:	40ba                	lw	ra,140(sp)
    80000e34:	c087d6f3          	csrrwi	a3,hpmcounter8,15
    80000e38:	a2c2                	fsd	fa6,320(sp)
    80000e3a:	410a                	lw	sp,128(sp)
    80000e3c:	ad1f 40c2 b83d      	.insn	6, 0xb83d40c2ad1f
    80000e42:	c08d                	beqz	s1,80000e64 <input_data+0x864>
    80000e44:	bfe4                	fsd	fs1,248(a5)
    80000e46:	bfa2                	fsd	fs0,504(sp)
    80000e48:	e56d                	bnez	a0,80000f32 <input_data+0x932>
    80000e4a:	bfbd                	j	80000dc8 <input_data+0x7c8>
    80000e4c:	454e                	lw	a0,208(sp)
    80000e4e:	62a44037          	lui	zero,0x62a44
    80000e52:	c0a5                	beqz	s1,80000eb2 <input_data+0x8b2>
    80000e54:	19a1                	addi	s3,s3,-24 # fffffffffffe9fe8 <_end+0xffffffff7ffd8fe8>
    80000e56:	411f 0ef5 bf6b      	.insn	6, 0xbf6b0ef5411f
    80000e5c:	be55                	j	80000a10 <input_data+0x410>
    80000e5e:	c09c                	sw	a5,0(s1)
    80000e60:	e9cd                	bnez	a1,80000f12 <input_data+0x912>
    80000e62:	fdfec0f3          	.insn	4, 0xfdfec0f3
    80000e66:	411c                	lw	a5,0(a0)
    80000e68:	f07c                	sd	a5,224(s0)
    80000e6a:	c009                	beqz	s0,80000e6c <input_data+0x86c>
    80000e6c:	c0c33f4f          	fnmadd.s	ft10,ft6,fa2,fs8,rup
    80000e70:	cdd4                	sw	a3,28(a1)
    80000e72:	f3064117          	auipc	sp,0xf3064
    80000e76:	c119                	beqz	a0,80000e7c <input_data+0x87c>
    80000e78:	2ef1                	addiw	t4,t4,28
    80000e7a:	3fe5                	addiw	t6,t6,-7
    80000e7c:	9f99                	subw	a5,a5,a4
    80000e7e:	40fd                	li	ra,31
    80000e80:	08f6                	slli	a7,a7,0x1d
    80000e82:	20f7410b          	.insn	4, 0x20f7410b
    80000e86:	c0dd                	beqz	s1,80000f2c <input_data+0x92c>
    80000e88:	7642                	ld	a2,48(sp)
    80000e8a:	4015                	c.li	zero,5
    80000e8c:	43ca                	lw	t2,144(sp)
    80000e8e:	c0f6                	sw	t4,64(sp)
    80000e90:	e9cd                	bnez	a1,80000f42 <input_data+0x942>
    80000e92:	404c                	lw	a1,4(s0)
    80000e94:	aa54                	fsd	fa3,144(a2)
    80000e96:	daa4c0c7          	fmsub.d	ft1,fs1,fa0,fs11,rmm
    80000e9a:	c108                	sw	a0,0(a0)
    80000e9c:	dfd2                	sw	s4,252(sp)
    80000e9e:	31a440e7          	.insn	4, 0x31a440e7
    80000ea2:	4101                	li	sp,0
    80000ea4:	75c9                	lui	a1,0xffff2
    80000ea6:	424a3fff c8d9c05a 	.insn	16, 0x42eec05e3162c102c8d9c05a424a3fff
    80000eae:	3162c102 42eec05e 
    80000eb6:	406c                	lw	a1,68(s0)
    80000eb8:	a8b1                	j	80000f14 <input_data+0x914>
    80000eba:	bfbc                	fsd	fa5,120(a5)
    80000ebc:	c005c897          	auipc	a7,0xc005c
    80000ec0:	0568                	addi	a0,sp,652
    80000ec2:	4118                	lw	a4,0(a0)
    80000ec4:	2f08                	fld	fa0,24(a4)
    80000ec6:	c0ca                	sw	s2,64(sp)
    80000ec8:	56ae                	lw	a3,232(sp)
    80000eca:	40cd                	li	ra,19
    80000ecc:	4114cf7b          	.insn	4, 0x4114cf7b
    80000ed0:	c095ccaf          	.insn	4, 0xc095ccaf
    80000ed4:	12c9                	addi	t0,t0,-14 # 1aff2 <_start-0x7ffe500e>
    80000ed6:	4094                	lw	a3,0(s1)
    80000ed8:	53b9                	li	t2,-18
    80000eda:	c015                	beqz	s0,80000efe <input_data+0x8fe>
    80000edc:	cfca                	sw	s2,220(sp)
    80000ede:	c0d1                	beqz	s1,80000f62 <input_data+0x962>
    80000ee0:	7785                	lui	a5,0xfffe1
    80000ee2:	c0e5                	beqz	s1,80000fc2 <input_data+0x9c2>
    80000ee4:	c094706b          	.insn	4, 0xc094706b
    80000ee8:	c105b1c7          	fmsub.s	ft3,fa1,fa6,fs8,rup
    80000eec:	e838                	sd	a4,80(s0)
    80000eee:	c0da                	sw	s6,64(sp)
    80000ef0:	4029                	c.li	zero,10
    80000ef2:	c0fa                	sw	t5,64(sp)
    80000ef4:	5526                	lw	a0,104(sp)
    80000ef6:	aa874097          	auipc	ra,0xaa874
    80000efa:	4106                	lw	sp,64(sp)
    80000efc:	a57a                	fsd	ft10,136(sp)
    80000efe:	bf88                	fsd	fa0,56(a5)
    80000f00:	7998                	ld	a4,48(a1)
    80000f02:	40c0                	lw	s0,4(s1)
    80000f04:	9b78                	.insn	2, 0x9b78
    80000f06:	40d2                	lw	ra,20(sp)
    80000f08:	3ea80c0f          	.insn	4, 0x3ea80c0f
    80000f0c:	410dc553          	.insn	4, 0x410dc553
    80000f10:	3854                	fld	fa3,176(s0)
    80000f12:	3644408f          	.insn	4, 0x3644408f
    80000f16:	595cc06b          	.insn	4, 0x595cc06b
    80000f1a:	40ba                	lw	ra,140(sp)
    80000f1c:	841f c113 6cfd      	.insn	6, 0x6cfdc113841f
    80000f22:	c0aa                	sw	a0,64(sp)
    80000f24:	bfccfa8b          	.insn	4, 0xbfccfa8b
    80000f28:	189e                	slli	a7,a7,0x27
    80000f2a:	c086                	sw	ra,64(sp)
    80000f2c:	346a                	fld	fs0,184(sp)
    80000f2e:	40d8                	lw	a4,4(s1)
    80000f30:	f90c                	sd	a1,48(a0)
    80000f32:	40d9                	li	ra,22
    80000f34:	bfb38327          	.insn	4, 0xbfb38327
    80000f38:	d280                	sw	s0,32(a3)
    80000f3a:	c080                	sw	s0,0(s1)
    80000f3c:	bffc08a7          	.insn	4, 0xbffc08a7
    80000f40:	a331                	j	8000144c <input_data+0xe4c>
    80000f42:	38cec0eb          	.insn	4, 0x38cec0eb
    80000f46:	2a3f3fef          	jal	t6,800f49e8 <_end+0xe39e8>
    80000f4a:	c099                	beqz	s1,80000f50 <input_data+0x950>
    80000f4c:	c06579fb          	.insn	4, 0xc06579fb
    80000f50:	e868                	sd	a0,208(s0)
    80000f52:	407e                	.insn	2, 0x407e
    80000f54:	c087684b          	fnmsub.s	fa6,fa4,fs0,fs8,unknown
    80000f58:	410a243b          	.insn	4, 0x410a243b
    80000f5c:	51ae                	lw	gp,232(sp)
    80000f5e:	410a                	lw	sp,128(sp)
    80000f60:	eb80                	sd	s0,16(a5)
    80000f62:	4108                	lw	a0,0(a0)
    80000f64:	a6a8                	fsd	fa0,72(a3)
    80000f66:	bf8c                	fsd	fa1,56(a5)
    80000f68:	410e0b07          	vlseg3e8ff.v	v22,(t3),v0.t
    80000f6c:	0718                	addi	a4,sp,896
    80000f6e:	c11c                	sw	a5,0(a0)
    80000f70:	c1a4                	sw	s1,64(a1)
    80000f72:	db2f403f 5ec4c00b 	.insn	8, 0x5ec4c00bdb2f403f
    80000f7a:	ab76c0af          	.insn	4, 0xab76c0af
    80000f7e:	761d411b          	.insn	4, 0x761d411b
    80000f82:	3fe5                	addiw	t6,t6,-7
    80000f84:	d3c4                	sw	s1,36(a5)
    80000f86:	411d                	li	sp,7
    80000f88:	4ca5                	li	s9,9
    80000f8a:	c0c9                	beqz	s1,8000100c <input_data+0xa0c>
    80000f8c:	64d0                	ld	a2,136(s1)
    80000f8e:	1117bf33          	.insn	4, 0x1117bf33
    80000f92:	c0a9                	beqz	s1,80000fd4 <input_data+0x9d4>
    80000f94:	6080                	ld	s0,0(s1)
    80000f96:	bf82                	fsd	ft0,504(sp)
    80000f98:	411c7a43          	fmadd.s	fs4,fs8,fa7,fs0
    80000f9c:	6f5c                	ld	a5,152(a4)
    80000f9e:	e1c84103          	lbu	sp,-484(a6)
    80000fa2:	40ea                	lw	ra,152(sp)
    80000fa4:	404505a7          	.insn	4, 0x404505a7
    80000fa8:	bea2db83          	lhu	s7,-1046(t0)
    80000fac:	625e                	ld	tp,464(sp)
    80000fae:	c115                	beqz	a0,80000fd2 <input_data+0x9d2>
    80000fb0:	007e                	c.slli	zero,0x1f
    80000fb2:	40da                	lw	ra,148(sp)
    80000fb4:	76ff                	.insn	2, 0x76ff
    80000fb6:	bfc83fcb          	.insn	4, 0xbfc83fcb
    80000fba:	4110                	lw	a2,0(a0)
    80000fbc:	5cdd                	li	s9,-9
    80000fbe:	bfe8                	fsd	fa0,248(a5)
    80000fc0:	b264                	fsd	fs1,224(a2)
    80000fc2:	bbf5410b          	.insn	4, 0xbbf5410b
    80000fc6:	bdadc057          	vnclip.wx	v0,v26,s11,v0.t
    80000fca:	336abfeb          	.insn	4, 0x336abfeb
    80000fce:	4030                	lw	a2,64(s0)
    80000fd0:	e70a                	sd	sp,392(sp)
    80000fd2:	40e5                	li	ra,25
    80000fd4:	f52c                	sd	a1,104(a0)
    80000fd6:	4109                	li	sp,2
    80000fd8:	414a                	lw	sp,144(sp)
    80000fda:	bbe2be87          	fld	ft9,-1090(t0)
    80000fde:	c0a0                	sw	s0,64(s1)
    80000fe0:	45ed                	li	a1,27
    80000fe2:	c09f 5893 c11d      	.insn	6, 0xc11d5893c09f
    80000fe8:	bf78dcdb          	.insn	4, 0xbf78dcdb
    80000fec:	2b28                	fld	fa0,80(a4)
    80000fee:	c0f9                	beqz	s1,800010b4 <input_data+0xab4>
    80000ff0:	cdc2                	sw	a6,216(sp)
    80000ff2:	b1a3c113          	xori	sp,t2,-1254
    80000ff6:	c0c4                	sw	s1,4(s1)
    80000ff8:	b406                	fsd	ft1,40(sp)
    80000ffa:	c10c                	sw	a1,0(a0)
    80000ffc:	c0c94cc7          	fmsub.s	fs9,fs2,fa2,fs8,rmm
    80001000:	3de6                	fld	fs11,120(sp)
    80001002:	98a6405b          	.insn	4, 0x98a6405b
    80001006:	3b414033          	.insn	4, 0x3b414033
    8000100a:	40ee                	lw	ra,216(sp)
    8000100c:	71c1                	lui	gp,0xffff0
    8000100e:	bfbd                	j	80000f8c <input_data+0x98c>
    80001010:	336e                	fld	ft6,248(sp)
    80001012:	2c81c017          	auipc	zero,0x2c81c
    80001016:	9485c117          	auipc	sp,0x9485c
    8000101a:	67b2c087          	.insn	4, 0x67b2c087
    8000101e:	86e93d8f          	.insn	4, 0x86e93d8f
    80001022:	410a                	lw	sp,128(sp)
    80001024:	40d85747          	fmsub.s	fa4,fa6,fa3,fs0,unknown
    80001028:	c0f708af          	.insn	4, 0xc0f708af
    8000102c:	6059                	c.lui	zero,0x16
    8000102e:	4114                	lw	a3,0(a0)
    80001030:	3fa42917          	auipc	s2,0x3fa42
    80001034:	ea1a                	sd	t1,272(sp)
    80001036:	409c                	lw	a5,0(s1)
    80001038:	7b78                	ld	a4,240(a4)
    8000103a:	c08c                	sw	a1,0(s1)
    8000103c:	0218                	addi	a4,sp,256
    8000103e:	e4654107          	.insn	4, 0xe4654107
    80001042:	bf04                	fsd	fs1,56(a4)
    80001044:	c01f090b          	.insn	4, 0xc01f090b
    80001048:	cac1                	beqz	a3,800010d8 <input_data+0xad8>
    8000104a:	3dc1                	addiw	s11,s11,-16
    8000104c:	61a6                	ld	gp,72(sp)
    8000104e:	411d                	li	sp,7
    80001050:	bdba                	fsd	fa4,248(sp)
    80001052:	be64                	fsd	fs1,248(a2)
    80001054:	c1054323          	.insn	4, 0xc1054323
    80001058:	ff32                	sd	a2,440(sp)
    8000105a:	276340ef          	jal	800352d0 <_end+0x242d0>
    8000105e:	7a1840ab          	.insn	4, 0x7a1840ab
    80001062:	bf90                	fsd	fa2,56(a5)
    80001064:	603d                	c.lui	zero,0xf
    80001066:	c0b4                	sw	a3,64(s1)
    80001068:	c01becbb          	.insn	4, 0xc01becbb
    8000106c:	405f1d9b          	.insn	4, 0x405f1d9b
    80001070:	c0a154b7          	lui	s1,0xc0a15
    80001074:	2a41                	addiw	s4,s4,16
    80001076:	c099                	beqz	s1,8000107c <input_data+0xa7c>
    80001078:	de1a                	sw	t1,60(sp)
    8000107a:	3f44                	fld	fs1,184(a4)
    8000107c:	6059                	c.lui	zero,0x16
    8000107e:	40f0                	lw	a2,68(s1)
    80001080:	c011ef0f          	.insn	4, 0xc011ef0f
    80001084:	4e40                	lw	s0,28(a2)
    80001086:	c092                	sw	tp,64(sp)
    80001088:	fb7c                	sd	a5,240(a4)
    8000108a:	c0c2                	sw	a6,64(sp)
    8000108c:	7f84                	ld	s1,56(a5)
    8000108e:	3fd1                	addiw	t6,t6,-12
    80001090:	9cc1                	.insn	2, 0x9cc1
    80001092:	eae2c0fb          	.insn	4, 0xeae2c0fb
    80001096:	3fc2                	fld	ft11,48(sp)
    80001098:	524e                	lw	tp,240(sp)
    8000109a:	410d                	li	sp,3
    8000109c:	4119b08b          	.insn	4, 0x4119b08b
    800010a0:	2728                	fld	fa0,72(a4)
    800010a2:	c0b5                	beqz	s1,80001106 <input_data+0xb06>
    800010a4:	6aea                	ld	s5,152(sp)
    800010a6:	c0d2                	sw	s4,64(sp)
    800010a8:	9008                	.insn	2, 0x9008
    800010aa:	c064                	sw	s1,68(s0)
    800010ac:	9724                	.insn	2, 0x9724
    800010ae:	be9f 5632 c013      	.insn	6, 0xc0135632be9f
    800010b4:	bfc7a283          	lw	t0,-1028(a5) # fffffffffffe0bfc <_end+0xffffffff7ffcfbfc>
    800010b8:	5c89                	li	s9,-30
    800010ba:	c0a6                	sw	s1,64(sp)
    800010bc:	14d1                	addi	s1,s1,-12 # ffffffffc0a14ff4 <_end+0xffffffff40a03ff4>
    800010be:	2ef140e7          	.insn	4, 0x2ef140e7
    800010c2:	b7c83eef          	jal	t4,7ff8443e <_start-0x7bbc2>
    800010c6:	891a3f0f          	.insn	4, 0x891a3f0f
    800010ca:	039b409b          	.insn	4, 0x039b409b
    800010ce:	4084                	lw	s1,0(s1)
    800010d0:	f4ae                	sd	a1,104(sp)
    800010d2:	4042                	.insn	2, 0x4042
    800010d4:	41fa                	lw	gp,156(sp)
    800010d6:	3e85                	addiw	t4,t4,-31
    800010d8:	6f46                	ld	t5,80(sp)
    800010da:	df0dc093          	xori	ra,s11,-528
    800010de:	c036                	sw	a3,0(sp)
    800010e0:	42b5                	li	t0,13
    800010e2:	40d1                	li	ra,20
    800010e4:	40d32dc3          	fmadd.s	fs11,ft6,fa3,fs0,rdn
    800010e8:	e38c                	sd	a1,0(a5)
    800010ea:	782b410f          	.insn	4, 0x782b410f
    800010ee:	c0e5                	beqz	s1,800011ce <input_data+0xbce>
    800010f0:	410de897          	auipc	a7,0x410de
    800010f4:	9ab1                	andi	a3,a3,-20
    800010f6:	8f9cc0b7          	lui	ra,0x8f9cc
    800010fa:	4114                	lw	a3,0(a0)
    800010fc:	4096f5ab          	.insn	4, 0x4096f5ab
    80001100:	8a0d                	andi	a2,a2,3
    80001102:	c012                	sw	tp,0(sp)
    80001104:	2a35                	addiw	s4,s4,13
    80001106:	4115                	li	sp,5
    80001108:	c116a857          	vwaddu.vv	v16,v17,v13,v0.t
    8000110c:	c024d7bf 3f869cfe 	.insn	8, 0x3f869cfec024d7bf
    80001114:	9c49                	.insn	2, 0x9c49
    80001116:	a6404037          	lui	zero,0xa6404
    8000111a:	bf19                	j	80001030 <input_data+0xa30>
    8000111c:	3305                	addiw	t1,t1,-31 # 410d2fe1 <_start-0x3ef2d01f>
    8000111e:	40f9                	li	ra,30
    80001120:	c11d3197          	auipc	gp,0xc11d3
    80001124:	b159                	j	80000daa <input_data+0x7aa>
    80001126:	40b6                	lw	ra,76(sp)
    80001128:	7061                	c.lui	zero,0xffff8
    8000112a:	be6d                	j	80000ce4 <input_data+0x6e4>
    8000112c:	411f572f          	.insn	4, 0x411f572f
    80001130:	6100                	ld	s0,0(a0)
    80001132:	40e4                	lw	s1,68(s1)
    80001134:	b1fd                	j	80000e22 <input_data+0x822>
    80001136:	c0ae                	sw	a1,64(sp)
    80001138:	0b3d                	addi	s6,s6,15 # 1500f <_start-0x7ffeaff1>
    8000113a:	13f0c09b          	.insn	4, 0x13f0c09b
    8000113e:	4024                	lw	s1,64(s0)
    80001140:	261a                	fld	fa2,384(sp)
    80001142:	c11c                	sw	a5,0(a0)
    80001144:	c049a683          	lw	a3,-1020(s3)
    80001148:	c0821a8f          	.insn	4, 0xc0821a8f
    8000114c:	0ffe                	slli	t6,t6,0x1f
    8000114e:	4064                	lw	s1,68(s0)
    80001150:	a305                	j	80001670 <input_data+0x1070>
    80001152:	bf36                	fsd	fa3,440(sp)
    80001154:	45b9                	li	a1,14
    80001156:	c0d2                	sw	s4,64(sp)
    80001158:	c1109763          	bne	ra,a7,80000566 <der_1+0x96>
    8000115c:	e1f4                	sd	a3,192(a1)
    8000115e:	ab473fdb          	.insn	4, 0xab473fdb
    80001162:	40ca                	lw	ra,144(sp)
    80001164:	3e3e                	fld	ft8,488(sp)
    80001166:	3f7d                	addiw	t5,t5,-1
    80001168:	0d74                	addi	a3,sp,668
    8000116a:	61573f53          	.insn	4, 0x61573f53
    8000116e:	411d                	li	sp,7
    80001170:	375a                	fld	fa4,432(sp)
    80001172:	c0ca                	sw	s2,64(sp)
    80001174:	935c                	.insn	2, 0x935c
    80001176:	be96                	fsd	ft5,376(sp)
    80001178:	4103c6f3          	.insn	4, 0x4103c6f3
    8000117c:	33ee                	fld	ft7,248(sp)
    8000117e:	40e2                	lw	ra,24(sp)
    80001180:	3f3fb5bf 40f4fa72 	.insn	8, 0x40f4fa723f3fb5bf
    80001188:	5c4c                	lw	a1,60(s0)
    8000118a:	0fd0c10b          	.insn	4, 0x0fd0c10b
    8000118e:	3fa9                	addiw	t6,t6,-22
    80001190:	e22a                	sd	a0,256(sp)
    80001192:	4104                	lw	s1,0(a0)
    80001194:	f9c6                	sd	a7,240(sp)
    80001196:	c014                	sw	a3,0(s0)
    80001198:	bff9                	j	80001176 <input_data+0xb76>
    8000119a:	c086                	sw	ra,64(sp)
    8000119c:	93a9                	srli	a5,a5,0x2a
    8000119e:	4084                	lw	s1,0(s1)
    800011a0:	783e                	ld	a6,488(sp)
    800011a2:	fdcec0ef          	jal	7ffed97e <_start-0x12682>
    800011a6:	3f09                	addiw	t5,t5,-30
    800011a8:	5798                	lw	a4,40(a5)
    800011aa:	4116                	lw	sp,68(sp)
    800011ac:	7020                	ld	s0,96(s0)
    800011ae:	c0bc                	sw	a5,64(s1)
    800011b0:	781c                	ld	a5,48(s0)
    800011b2:	40e6                	lw	ra,88(sp)
    800011b4:	792d                	lui	s2,0xfffeb
    800011b6:	3f44                	fld	fs1,184(a4)
    800011b8:	ce21                	beqz	a2,80001210 <input_data+0xc10>
    800011ba:	0f6b3d43          	.insn	4, 0x0f6b3d43
    800011be:	45893f7f 967d402e 	.insn	16, 0x0eee40e5d6604099967d402e45893f7f
    800011c6:	d6604099 0eee40e5 
    800011ce:	f4d34117          	auipc	sp,0xf4d34
    800011d2:	c10d                	beqz	a0,800011f4 <input_data+0xbf4>
    800011d4:	48fc                	lw	a5,84(s1)
    800011d6:	c0a5                	beqz	s1,80001236 <input_data+0xc36>
    800011d8:	40b0c8bf c113543c 	.insn	8, 0xc113543c40b0c8bf
    800011e0:	aa1a                	fsd	ft6,272(sp)
    800011e2:	c116                	sw	t0,128(sp)
    800011e4:	c045e1e7          	.insn	4, 0xc045e1e7
    800011e8:	a551                	j	8000186c <input_data+0x126c>
    800011ea:	28d04087          	.insn	4, 0x28d04087
    800011ee:	c00d                	beqz	s0,80001210 <input_data+0xc10>
    800011f0:	c4f4                	sw	a3,76(s1)
    800011f2:	c059                	beqz	s0,80001278 <input_data+0xc78>
    800011f4:	4751                	li	a4,20
    800011f6:	c118                	sw	a4,0(a0)
    800011f8:	409c8a63          	beq	s9,s1,8000160c <input_data+0x100c>
    800011fc:	2d19                	addiw	s10,s10,6
    800011fe:	40a9                	li	ra,10
    80001200:	0935                	addi	s2,s2,13 # fffffffffffeb00d <_end+0xffffffff7ffda00d>
    80001202:	4000                	lw	s0,0(s0)
    80001204:	c11b2be3          	.insn	4, 0xc11b2be3
    80001208:	4004ab93          	slti	s7,s1,1024
    8000120c:	c904                	sw	s1,16(a0)
    8000120e:	4102                	lw	sp,0(sp)
    80001210:	24c6                	fld	fs1,80(sp)
    80001212:	c08d                	beqz	s1,80001234 <input_data+0xc34>
    80001214:	be29                	j	80000d2e <input_data+0x72e>
    80001216:	c0fd                	beqz	s1,800012fc <input_data+0xcfc>
    80001218:	9ff1                	.insn	2, 0x9ff1
    8000121a:	d94d4033          	.insn	4, 0xd94d4033
    8000121e:	4094                	lw	a3,0(s1)
    80001220:	9bac                	.insn	2, 0x9bac
    80001222:	759fc0c3          	.insn	4, 0x759fc0c3
    80001226:	4002                	.insn	2, 0x4002
    80001228:	c0cb35af          	amominu.d	a1,a2,(s6)
    8000122c:	c06a                	sw	s10,0(sp)
    8000122e:	4010                	lw	a2,0(s0)
    80001230:	e5da                	sd	s6,200(sp)
    80001232:	bfd5                	j	80001226 <input_data+0xc26>
    80001234:	5395                	li	t2,-27
    80001236:	c0d0                	sw	a2,4(s1)
    80001238:	410ebfe3          	.insn	4, 0x410ebfe3
    8000123c:	e590                	sd	a2,8(a1)
    8000123e:	0525c117          	auipc	sp,0x525c
    80001242:	3f6e                	fld	ft10,248(sp)
    80001244:	f6ec                	sd	a1,232(a3)
    80001246:	409a                	lw	ra,132(sp)
    80001248:	25a2                	fld	fa1,8(sp)
    8000124a:	c07e                	sw	t6,0(sp)
    8000124c:	4e59                	li	t3,22
    8000124e:	402e                	.insn	2, 0x402e
    80001250:	2aa2                	fld	fs5,8(sp)
    80001252:	bede                	fsd	fs7,376(sp)
    80001254:	403d4a77          	.insn	4, 0x403d4a77
    80001258:	7089                	lui	ra,0xfffe2
    8000125a:	c51940ef          	jal	7ff95eaa <_start-0x6a156>
    8000125e:	c109                	beqz	a0,80001260 <input_data+0xc60>
    80001260:	408bd5f3          	csrrwi	a1,0x408,23
    80001264:	249e                	fld	fs1,448(sp)
    80001266:	c072                	sw	t3,0(sp)
    80001268:	24ec                	fld	fa1,200(s1)
    8000126a:	4089                	li	ra,2
    8000126c:	16ad                	addi	a3,a3,-21
    8000126e:	3f90                	fld	fa2,56(a5)
    80001270:	0060                	addi	s0,sp,12
    80001272:	c00c                	sw	a1,0(s0)
    80001274:	40dd39c7          	fmsub.s	fs3,fs10,fa3,fs0,rup
    80001278:	6dc6                	ld	s11,80(sp)
    8000127a:	3fec                	fld	fa1,248(a5)
    8000127c:	0271                	addi	tp,tp,28 # fffffffffffe301c <_end+0xffffffff7ffd201c>
    8000127e:	c0f0                	sw	a2,68(s1)
    80001280:	59c9                	li	s3,-14
    80001282:	403d                	c.li	zero,15
    80001284:	b674                	fsd	fa3,232(a2)
    80001286:	c0e0                	sw	s0,68(s1)
    80001288:	d274                	sw	a3,100(a2)
    8000128a:	c11e                	sw	t2,128(sp)
    8000128c:	bfba142f          	.insn	4, 0xbfba142f
    80001290:	cf35                	beqz	a4,8000130c <input_data+0xd0c>
    80001292:	4042                	.insn	2, 0x4042
    80001294:	4c62                	lw	s8,24(sp)
    80001296:	bffa                	fsd	ft10,504(sp)
    80001298:	c10177e3          	bgeu	sp,a6,80000ea6 <input_data+0x8a6>
    8000129c:	f0f6                	sd	t4,96(sp)
    8000129e:	234b40ab          	.insn	4, 0x234b40ab
    800012a2:	3f92                	fld	ft11,288(sp)
    800012a4:	3928                	fld	fa0,112(a0)
    800012a6:	c0de                	sw	s7,64(sp)
    800012a8:	b4fa                	fsd	ft10,104(sp)
    800012aa:	3f92                	fld	ft11,288(sp)
    800012ac:	4119e0e3          	bltu	s3,a7,80001eac <input_data+0x18ac>
    800012b0:	44d6                	lw	s1,84(sp)
    800012b2:	4099                	li	ra,6
    800012b4:	1701                	addi	a4,a4,-32
    800012b6:	49f640e7          	.insn	4, 0x49f640e7
    800012ba:	4108                	lw	a0,0(a0)
    800012bc:	17ad                	addi	a5,a5,-21
    800012be:	284ac033          	.insn	4, 0x284ac033
    800012c2:	c02a                	sw	a0,0(sp)
    800012c4:	40addd7b          	.insn	4, 0x40addd7b
    800012c8:	c10df3ef          	jal	t2,7ffe06d8 <_start-0x1f928>
    800012cc:	e951                	bnez	a0,80001360 <input_data+0xd60>
    800012ce:	9294c10b          	.insn	4, 0x9294c10b
    800012d2:	20d5408b          	.insn	4, 0x20d5408b
    800012d6:	bf60                	fsd	fs0,248(a4)
    800012d8:	e46d                	bnez	s0,800013c2 <input_data+0xdc2>
    800012da:	c00a                	sw	sp,0(sp)
    800012dc:	410eec8b          	.insn	4, 0x410eec8b
    800012e0:	c678                	sw	a4,76(a2)
    800012e2:	c0f0                	sw	a2,68(s1)
    800012e4:	c0f3e213          	ori	tp,t2,-1009
    800012e8:	98d9                	andi	s1,s1,-10
    800012ea:	a238bf87          	fld	ft11,-1501(a7) # c10deb13 <_end+0x410cdb13>
    800012ee:	407f b253 40dc 977d 	.insn	18, 0xc08d5d42c0f3731bc093977d40dcb253407f
    800012f6:	c093 731b c0f3 5d42 
    800012fe:	c08d 
    80001300:	4101ca53          	.insn	4, 0x4101ca53
    80001304:	1b78                	addi	a4,sp,444
    80001306:	4111                	li	sp,4
    80001308:	46d8                	lw	a4,12(a3)
    8000130a:	3edc                	fld	fa5,184(a3)
    8000130c:	409068c7          	fmsub.s	fa7,ft0,fs1,fs0,unknown
    80001310:	d738                	sw	a4,104(a4)
    80001312:	4036                	.insn	2, 0x4036
    80001314:	4e9e                	lw	t4,196(sp)
    80001316:	40ff 0a31 3fbe e4d2 	.insn	18, 0xbfedde2fbfed2c06405fe4d23fbe0a3140ff
    8000131e:	405f 2c06 bfed de2f 
    80001326:	bfed 
    80001328:	8510                	.insn	2, 0x8510
    8000132a:	40d4                	lw	a3,4(s1)
    8000132c:	783a                	ld	a6,424(sp)
    8000132e:	40ac                	lw	a1,64(s1)
    80001330:	e376                	sd	t4,384(sp)
    80001332:	40a0                	lw	s0,64(s1)
    80001334:	c1195ec7          	fmsub.s	ft9,fs2,fa7,fs8,unknown
    80001338:	36ba                	fld	fa3,424(sp)
    8000133a:	11f14113          	xori	sp,sp,287
    8000133e:	3f15                	addiw	t5,t5,-27
    80001340:	731a                	ld	t1,416(sp)
    80001342:	4119                	li	sp,6
    80001344:	4682                	lw	a3,0(sp)
    80001346:	c099                	beqz	s1,8000134c <input_data+0xd4c>
    80001348:	ee24                	sd	s1,88(a2)
    8000134a:	bf65                	j	80001302 <input_data+0xd02>
    8000134c:	c11d0bf7          	.insn	4, 0xc11d0bf7
    80001350:	38da                	fld	fa7,432(sp)
    80001352:	402a                	.insn	2, 0x402a
    80001354:	1f96                	slli	t6,t6,0x25
    80001356:	4110                	lw	a2,0(a0)
    80001358:	55c9                	li	a1,-14
    8000135a:	c085                	beqz	s1,8000137a <input_data+0xd7a>
    8000135c:	fd1a                	sd	t1,184(sp)
    8000135e:	c100                	sw	s0,0(a0)
    80001360:	5c59                	li	s8,-10
    80001362:	40ce                	lw	ra,208(sp)
    80001364:	845e                	mv	s0,s7
    80001366:	c0e0                	sw	s0,68(s1)
    80001368:	b13a                	fsd	fa4,160(sp)
    8000136a:	c05a                	sw	s6,0(sp)
    8000136c:	09ee                	slli	s3,s3,0x1b
    8000136e:	403c                	lw	a5,64(s0)
    80001370:	9581                	srai	a1,a1,0x20
    80001372:	c0a9                	beqz	s1,800013b4 <input_data+0xdb4>
    80001374:	fd24                	sd	s1,120(a0)
    80001376:	c092                	sw	tp,64(sp)
    80001378:	4071                	c.li	zero,28
    8000137a:	98464117          	auipc	sp,0x98464
    8000137e:	4e62c06b          	.insn	4, 0x4e62c06b
    80001382:	c046                	sw	a7,0(sp)
    80001384:	70f6                	ld	ra,376(sp)
    80001386:	4102                	lw	sp,0(sp)
    80001388:	0f71                	addi	t5,t5,28
    8000138a:	40e8                	lw	a0,68(s1)
    8000138c:	bffe8d8f          	.insn	4, 0xbffe8d8f
    80001390:	5221                	li	tp,-24
    80001392:	4118                	lw	a4,0(a0)
    80001394:	9a7c                	.insn	2, 0x9a7c
    80001396:	4112                	lw	sp,4(sp)
    80001398:	2164                	fld	fs1,192(a0)
    8000139a:	c015                	beqz	s0,800013be <input_data+0xdbe>
    8000139c:	c0efa11b          	.insn	4, 0xc0efa11b
    800013a0:	3700                	fld	fs0,40(a4)
    800013a2:	40b0                	lw	a2,64(s1)
    800013a4:	7455                	lui	s0,0xffff5
    800013a6:	411f 8c3f be20      	.insn	6, 0xbe208c3f411f
    800013ac:	37e5                	addiw	a5,a5,-7
    800013ae:	4090                	lw	a2,0(s1)
    800013b0:	5cbc                	lw	a5,120(s1)
    800013b2:	4068                	lw	a0,68(s0)
    800013b4:	d25d                	beqz	a2,8000135a <input_data+0xd5a>
    800013b6:	c0f4                	sw	a3,68(s1)
    800013b8:	342d                	addiw	s0,s0,-21 # ffffffffffff4feb <_end+0xffffffff7ffe3feb>
    800013ba:	c106                	sw	ra,128(sp)
    800013bc:	d146                	sw	a7,160(sp)
    800013be:	c0be                	sw	a5,64(sp)
    800013c0:	c01e                	sw	t2,0(sp)
    800013c2:	40b2                	lw	ra,12(sp)
    800013c4:	d719                	beqz	a4,800012d2 <input_data+0xcd2>
    800013c6:	c095                	beqz	s1,800013ea <input_data+0xdea>
    800013c8:	07c1                	addi	a5,a5,16
    800013ca:	410e                	lw	sp,192(sp)
    800013cc:	9de5                	.insn	2, 0x9de5
    800013ce:	c015                	beqz	s0,800013f2 <input_data+0xdf2>
    800013d0:	151a                	slli	a0,a0,0x26
    800013d2:	3fe0                	fld	fs0,248(a5)
    800013d4:	12fd                	addi	t0,t0,-1
    800013d6:	0243c053          	fadd.d	ft0,ft7,ft4,rmm
    800013da:	3fca                	fld	ft11,176(sp)
    800013dc:	40918963          	beq	gp,s1,800017ee <input_data+0x11ee>
    800013e0:	c1009a47          	fmsub.s	fs4,ft1,fa6,fs8,rtz
    800013e4:	df20                	sw	s0,120(a4)
    800013e6:	40ac                	lw	a1,64(s1)
    800013e8:	d196                	sw	t0,224(sp)
    800013ea:	3ed8                	fld	fa4,184(a3)
    800013ec:	4fdf 3fb5 63a4      	.insn	6, 0x63a43fb54fdf
    800013f2:	40c5                	li	ra,17
    800013f4:	401c0803          	lb	a6,1025(s8)
    800013f8:	c050a2d7          	vwaddu.vv	v5,v5,v1,v0.t
    800013fc:	7f9d                	lui	t6,0xfffe7
    800013fe:	077440b3          	.insn	4, 0x077440b3
    80001402:	be61                	j	80000f9a <input_data+0x99a>
    80001404:	40ee5faf          	.insn	4, 0x40ee5faf
    80001408:	c7ec                	sw	a1,76(a5)
    8000140a:	df58c11b          	.insn	4, 0xdf58c11b
    8000140e:	c106                	sw	ra,128(sp)
    80001410:	4013c12b          	.insn	4, 0x4013c12b
    80001414:	9870                	.insn	2, 0x9870
    80001416:	3f80                	fld	fs0,56(a5)
    80001418:	7768                	ld	a0,232(a4)
    8000141a:	c088                	sw	a0,0(s1)
    8000141c:	6a6e                	ld	s4,216(sp)
    8000141e:	c01c                	sw	a5,0(s0)
    80001420:	adfd                	j	80001b1e <input_data+0x151e>
    80001422:	40f2                	lw	ra,28(sp)
    80001424:	3e55                	addiw	t3,t3,-11
    80001426:	4099                	li	ra,6
    80001428:	0a11                	addi	s4,s4,4
    8000142a:	4094                	lw	a3,0(s1)
    8000142c:	ff09                	bnez	a4,80001346 <input_data+0xd46>
    8000142e:	408c                	lw	a1,0(s1)
    80001430:	23f2                	fld	ft7,280(sp)
    80001432:	4af1c0e3          	blt	gp,a5,800020d2 <input_data+0x1ad2>
    80001436:	4080                	lw	s0,0(s1)
    80001438:	0d9f c113 90de      	.insn	6, 0x90dec1130d9f
    8000143e:	4054                	lw	a3,4(s0)
    80001440:	c0de31a7          	fsd	fa3,-1021(t3)
    80001444:	0931                	addi	s2,s2,12
    80001446:	bb6fbf3f 71474096 	.insn	8, 0x71474096bb6fbf3f
    8000144e:	404a                	.insn	2, 0x404a
    80001450:	cf1f 4100 9d24      	.insn	6, 0x9d244100cf1f
    80001456:	c0d4                	sw	a3,4(s1)
    80001458:	bf275c4b          	.insn	4, 0xbf275c4b
    8000145c:	29a0                	fld	fs0,80(a1)
    8000145e:	408e                	lw	ra,192(sp)
    80001460:	627c                	ld	a5,192(a2)
    80001462:	c0da                	sw	s6,64(sp)
    80001464:	410546c7          	fmsub.s	fa3,fa0,fa6,fs0,rmm
    80001468:	13f5                	addi	t2,t2,-3
    8000146a:	770740d3          	.insn	4, 0x770740d3
    8000146e:	7139c11b          	.insn	4, 0x7139c11b
    80001472:	40b4                	lw	a3,64(s1)
    80001474:	9f80                	.insn	2, 0x9f80
    80001476:	c0fe                	sw	t6,64(sp)
    80001478:	326e                	fld	ft4,248(sp)
    8000147a:	4fa840c7          	.insn	4, 0x4fa840c7
    8000147e:	410a                	lw	sp,128(sp)
    80001480:	5aad                	li	s5,-21
    80001482:	40d2                	lw	ra,20(sp)
    80001484:	0642                	slli	a2,a2,0x10
    80001486:	c08c                	sw	a1,0(s1)
    80001488:	2e8c                	fld	fa1,24(a3)
    8000148a:	3fe5                	addiw	t6,t6,-7 # fffffffffffe6ff9 <_end+0xffffffff7ffd5ff9>
    8000148c:	c0d21d43          	fmadd.s	fs10,ft4,fa3,fs8,rtz
    80001490:	0fc1                	addi	t6,t6,16
    80001492:	4f0740a3          	.insn	4, 0x4f0740a3
    80001496:	c0ee                	sw	s11,64(sp)
    80001498:	93b2                	add	t2,t2,a2
    8000149a:	4084                	lw	s1,0(s1)
    8000149c:	a3c6                	fsd	fa7,448(sp)
    8000149e:	c015                	beqz	s0,800014c2 <input_data+0xec2>
    800014a0:	50b5                	li	ra,-19
    800014a2:	406d                	c.li	zero,27
    800014a4:	f0f8                	sd	a4,224(s1)
    800014a6:	88a9c0fb          	.insn	4, 0x88a9c0fb
    800014aa:	c085                	beqz	s1,800014ca <input_data+0xeca>
    800014ac:	c0a30017          	auipc	zero,0xc0a30
    800014b0:	4a92                	lw	s5,4(sp)
    800014b2:	40fd                	li	ra,31
    800014b4:	1cd2                	slli	s9,s9,0x34
    800014b6:	b44cc0ab          	.insn	4, 0xb44cc0ab
    800014ba:	40e5                	li	ra,25
    800014bc:	b372                	fsd	ft8,416(sp)
    800014be:	40fc                	lw	a5,68(s1)
    800014c0:	e604                	sd	s1,8(a2)
    800014c2:	3eb9                	addiw	t4,t4,-18
    800014c4:	c9fd                	beqz	a1,800015ba <input_data+0xfba>
    800014c6:	40b5                	li	ra,13
    800014c8:	a43a                	fsd	fa4,8(sp)
    800014ca:	c0e0                	sw	s0,68(s1)
    800014cc:	0185                	addi	gp,gp,1 # 411d4121 <_start-0x3ee2bedf>
    800014ce:	c104                	sw	s1,0(a0)
    800014d0:	8d12                	mv	s10,tp
    800014d2:	4109                	li	sp,2
    800014d4:	74ba                	ld	s1,424(sp)
    800014d6:	40a2                	lw	ra,8(sp)
    800014d8:	b888                	fsd	fa0,48(s1)
    800014da:	e8383fcb          	fnmsub.s	ft11,fa6,ft3,ft9,rup
    800014de:	2ddcc0f3          	.insn	4, 0x2ddcc0f3
    800014e2:	402a                	.insn	2, 0x402a
    800014e4:	7e52                	ld	t3,304(sp)
    800014e6:	3212c0cf          	fnmadd.d	ft1,ft5,ft1,ft6,rmm
    800014ea:	4039                	c.li	zero,14
    800014ec:	1ee9                	addi	t4,t4,-6
    800014ee:	40cd                	li	ra,19
    800014f0:	babc                	fsd	fa5,112(a3)
    800014f2:	6d6cc103          	lbu	sp,1750(s9)
    800014f6:	c0e0                	sw	s0,68(s1)
    800014f8:	4ff0                	lw	a2,92(a5)
    800014fa:	40a9                	li	ra,10
    800014fc:	0e39                	addi	t3,t3,14
    800014fe:	c0f9                	beqz	s1,800015c4 <input_data+0xfc4>
    80001500:	90d6                	add	ra,ra,s5
    80001502:	c018                	sw	a4,0(s0)
    80001504:	40c147cb          	fnmsub.s	fa5,ft2,fa2,fs0,rmm
    80001508:	8c1d                	sub	s0,s0,a5
    8000150a:	c10c                	sw	a1,0(a0)
    8000150c:	d152                	sw	s4,160(sp)
    8000150e:	c11a                	sw	t1,128(sp)
    80001510:	0b91                	addi	s7,s7,4
    80001512:	40a0                	lw	s0,64(s1)
    80001514:	1c52                	slli	s8,s8,0x34
    80001516:	c114                	sw	a3,0(a0)
    80001518:	e7bc                	sd	a5,72(a5)
    8000151a:	4004                	lw	s1,0(s0)
    8000151c:	bfca7b67          	.insn	4, 0xbfca7b67
    80001520:	d36d                	beqz	a4,80001502 <input_data+0xf02>
    80001522:	c0bd                	beqz	s1,80001588 <input_data+0xf88>
    80001524:	3e968167          	jalr	sp,1001(a3)
    80001528:	5b8a                	lw	s7,160(sp)
    8000152a:	4114                	lw	a3,0(a0)
    8000152c:	72b5                	lui	t0,0xfffed
    8000152e:	c110                	sw	a2,0(a0)
    80001530:	f9e4                	sd	s1,240(a1)
    80001532:	4111                	li	sp,4
    80001534:	e332                	sd	a2,384(sp)
    80001536:	bfb1                	j	80001492 <input_data+0xe92>
    80001538:	6020                	ld	s0,64(s0)
    8000153a:	c100                	sw	s0,0(a0)
    8000153c:	eb42                	sd	a6,400(sp)
    8000153e:	f0c540cb          	fnmsub.s	ft1,fa0,fa2,ft10,rmm
    80001542:	4090                	lw	a2,0(s1)
    80001544:	233e                	fld	ft6,456(sp)
    80001546:	3737c03f 64bb409d 	.insn	8, 0x64bb409d3737c03f
    8000154e:	c0e6                	sw	s9,64(sp)
    80001550:	50dd                	li	ra,-9
    80001552:	40a6                	lw	ra,72(sp)
    80001554:	aee6                	fsd	fs9,344(sp)
    80001556:	c050                	sw	a2,4(s0)
    80001558:	f4c1                	bnez	s1,800014e0 <input_data+0xee0>
    8000155a:	411f 4b4b 40d5      	.insn	6, 0x40d54b4b411f
    80001560:	8cd4                	.insn	2, 0x8cd4
    80001562:	2639c113          	xori	sp,s3,611
    80001566:	c066                	sw	s9,0(sp)
    80001568:	4095ef63          	bltu	a1,s1,80001986 <input_data+0x1386>
    8000156c:	8619                	srai	a2,a2,0x6
    8000156e:	411e                	lw	sp,196(sp)
    80001570:	ca25                	beqz	a2,800015e0 <input_data+0xfe0>
    80001572:	3fea                	fld	ft11,184(sp)
    80001574:	f20a                	sd	sp,288(sp)
    80001576:	c0c1                	beqz	s1,800015f6 <input_data+0xff6>
    80001578:	5395                	li	t2,-27
    8000157a:	40d1                	li	ra,20
    8000157c:	2c0e                	fld	fs8,192(sp)
    8000157e:	c0b2                	sw	a2,64(sp)
    80001580:	eae6                	sd	s9,336(sp)
    80001582:	40cd                	li	ra,19
    80001584:	7f9d                	lui	t6,0xfffe7
    80001586:	c05d                	beqz	s0,8000162c <input_data+0x102c>
    80001588:	1cf8                	addi	a4,sp,636
    8000158a:	40f9                	li	ra,30
    8000158c:	40d1fb2f          	.insn	4, 0x40d1fb2f
    80001590:	7d78                	ld	a4,248(a0)
    80001592:	bf8a                	fsd	ft2,504(sp)
    80001594:	dedf c10e 917d      	.insn	6, 0x917dc10ededf
    8000159a:	c019                	beqz	s0,800015a0 <input_data+0xfa0>
    8000159c:	b85a                	fsd	fs6,48(sp)
    8000159e:	4118                	lw	a4,0(a0)
    800015a0:	bf504513          	xori	a0,zero,-1035
    800015a4:	2b1c                	fld	fa5,16(a4)
    800015a6:	4104                	lw	s1,0(a0)
    800015a8:	2c56                	fld	fs8,336(sp)
    800015aa:	3f76                	fld	ft10,376(sp)
    800015ac:	c01b9f77          	.insn	4, 0xc01b9f77
    800015b0:	bcdc                	fsd	fa5,184(s1)
    800015b2:	beb9                	j	80001110 <input_data+0xb10>
    800015b4:	94bd                	srai	s1,s1,0x2f
    800015b6:	411f 9d0f 4005      	.insn	6, 0x40059d0f411f
    800015bc:	1ae1                	addi	s5,s5,-8
    800015be:	c0d5                	beqz	s1,80001662 <input_data+0x1062>
    800015c0:	d830                	sw	a2,112(s0)
    800015c2:	40ed                	li	ra,27
    800015c4:	6536                	ld	a0,328(sp)
    800015c6:	c0c6                	sw	a7,64(sp)
    800015c8:	314d                	addiw	sp,sp,-13 # 1846536d <_start-0x67b9ac93>
    800015ca:	3fb1                	addiw	t6,t6,-20 # fffffffffffe6fec <_end+0xffffffff7ffd5fec>
    800015cc:	d584                	sw	s1,40(a1)
    800015ce:	bf8a                	fsd	ft2,504(sp)
    800015d0:	c1190e53          	.insn	4, 0xc1190e53
    800015d4:	885d                	andi	s0,s0,23
    800015d6:	c0f5                	beqz	s1,800016ba <input_data+0x10ba>
    800015d8:	d3a2                	sw	s0,228(sp)
    800015da:	81304117          	auipc	sp,0x81304
    800015de:	c098                	sw	a4,0(s1)
    800015e0:	fefa                	sd	t5,376(sp)
    800015e2:	40da                	lw	ra,148(sp)
    800015e4:	6191                	lui	gp,0x4
    800015e6:	c01e                	sw	t2,0(sp)
    800015e8:	9eed                	.insn	2, 0x9eed
    800015ea:	3f92                	fld	ft11,288(sp)
    800015ec:	c0b22e4b          	fnmsub.s	ft8,ft4,fa1,fs8,rdn
    800015f0:	8ca8                	.insn	2, 0x8ca8
    800015f2:	4061                	c.li	zero,24
    800015f4:	89df 3e91 b207      	.insn	6, 0xb2073e9189df
    800015fa:	4082                	lw	ra,0(sp)
    800015fc:	efe5                	bnez	a5,800016f4 <input_data+0x10f4>
    800015fe:	4100                	lw	s0,0(a0)
    80001600:	c0f82ea7          	fsw	fa5,-995(a6)
    80001604:	d5ac                	sw	a1,104(a1)
    80001606:	c0d9                	beqz	s1,8000168c <input_data+0x108c>
    80001608:	b008                	fsd	fa0,32(s0)
    8000160a:	402a                	.insn	2, 0x402a
    8000160c:	640a                	ld	s0,128(sp)
    8000160e:	9e6bc0a3          	.insn	4, 0x9e6bc0a3
    80001612:	da32bebb          	.insn	4, 0xda32bebb
    80001616:	79abc083          	lbu	ra,1946(s7)
    8000161a:	c04a                	sw	s2,0(sp)
    8000161c:	3c56                	fld	fs8,368(sp)
    8000161e:	410e                	lw	sp,192(sp)
    80001620:	db98                	sw	a4,48(a5)
    80001622:	18fe4017          	auipc	zero,0x18fe4
    80001626:	4116                	lw	sp,68(sp)
    80001628:	0260                	addi	s0,sp,268
    8000162a:	c011                	beqz	s0,8000162e <input_data+0x102e>
    8000162c:	7e46                	ld	t3,112(sp)
    8000162e:	bfb9                	j	8000158c <input_data+0xf8c>
    80001630:	cd0e                	sw	gp,152(sp)
    80001632:	40fd                	li	ra,31
    80001634:	c10231cf          	fnmadd.s	ft3,ft4,fa6,fs8,rup
    80001638:	9fe4                	.insn	2, 0x9fe4
    8000163a:	bf45                	j	800015ea <input_data+0xfea>
    8000163c:	4092207b          	.insn	4, 0x4092207b
    80001640:	d5d8                	sw	a4,44(a1)
    80001642:	bf3c                	fsd	fa5,120(a4)
    80001644:	d30d                	beqz	a4,80001566 <input_data+0xf66>
    80001646:	411d                	li	sp,7
    80001648:	95f2                	add	a1,a1,t3
    8000164a:	c091                	beqz	s1,8000164e <input_data+0x104e>
    8000164c:	40b493cb          	fnmsub.s	ft7,fs1,fa1,fs0,rtz
    80001650:	390e                	fld	fs2,224(sp)
    80001652:	c111                	beqz	a0,80001656 <input_data+0x1056>
    80001654:	407a754f          	fnmadd.s	fa0,fs4,ft7,fs0
    80001658:	c150                	sw	a2,4(a0)
    8000165a:	410c                	lw	a1,0(a0)
    8000165c:	40fed4ef          	jal	s1,800ef26a <_end+0xde26a>
    80001660:	fc9e                	sd	t2,120(sp)
    80001662:	408e                	lw	ra,192(sp)
    80001664:	63d8                	ld	a4,128(a5)
    80001666:	c0a4                	sw	s1,64(s1)
    80001668:	31cd                	addiw	gp,gp,-13 # 3ff3 <_start-0x7fffc00d>
    8000166a:	c109                	beqz	a0,8000166c <input_data+0x106c>
    8000166c:	bfeaa383          	lw	t2,-1026(s5)
    80001670:	b6c6                	fsd	fa7,360(sp)
    80001672:	2831c09b          	.insn	4, 0x2831c09b
    80001676:	a7634037          	lui	zero,0xa7634
    8000167a:	c094                	sw	a3,0(s1)
    8000167c:	7a3e                	ld	s4,488(sp)
    8000167e:	c084                	sw	s1,0(s1)
    80001680:	4044ff43          	fmadd.s	ft10,fs1,ft4,fs0
    80001684:	12ae                	slli	t0,t0,0x2b
    80001686:	3ffe                	fld	ft11,504(sp)
    80001688:	73c9                	lui	t2,0xffff2
    8000168a:	0c02c06f          	j	8002d74a <_end+0x1c74a>
    8000168e:	40c8                	lw	a0,4(s1)
    80001690:	b4a2                	fsd	fs0,104(sp)
    80001692:	ae88c033          	.insn	4, 0xae88c033
    80001696:	40cd                	li	ra,19
    80001698:	c04183c3          	fmadd.s	ft7,ft3,ft4,fs8,rne
    8000169c:	c0f9a897          	auipc	a7,0xc0f9a
    800016a0:	5e9e                	lw	t4,228(sp)
    800016a2:	3fa5                	addiw	t6,t6,-23
    800016a4:	35f0                	fld	fa2,232(a1)
    800016a6:	40f6                	lw	ra,92(sp)
    800016a8:	5c98                	lw	a4,56(s1)
    800016aa:	c0ba                	sw	a4,64(sp)
    800016ac:	78b9                	lui	a7,0xfffee
    800016ae:	c100                	sw	s0,0(a0)
    800016b0:	c0416b27          	.insn	4, 0xc0416b27
    800016b4:	40180b5b          	.insn	4, 0x40180b5b
    800016b8:	db90                	sw	a2,48(a5)
    800016ba:	c064                	sw	s1,68(s0)
    800016bc:	400497b3          	.insn	4, 0x400497b3
    800016c0:	a542                	fsd	fa6,136(sp)
    800016c2:	d8084103          	lbu	sp,-640(a6)
    800016c6:	4108                	lw	a0,0(a0)
    800016c8:	6ece                	ld	t4,208(sp)
    800016ca:	c061                	beqz	s0,8000178a <input_data+0x118a>
    800016cc:	23f9                	addiw	t2,t2,30 # ffffffffffff201e <_end+0xffffffff7ffe101e>
    800016ce:	c0be                	sw	a5,64(sp)
    800016d0:	40ed1383          	lh	t2,1038(s10)
    800016d4:	4057a5db          	.insn	4, 0x4057a5db
    800016d8:	6f54                	ld	a3,152(a4)
    800016da:	da45402f          	.insn	4, 0xda45402f
    800016de:	e8a7c013          	xori	zero,a5,-374
    800016e2:	3fce                	fld	ft11,240(sp)
    800016e4:	af1e                	fsd	ft7,408(sp)
    800016e6:	fb29c10f          	.insn	4, 0xfb29c10f
    800016ea:	409a                	lw	ra,132(sp)
    800016ec:	033a                	slli	t1,t1,0xe
    800016ee:	c079                	beqz	s0,800017b4 <input_data+0x11b4>
    800016f0:	1312                	slli	t1,t1,0x24
    800016f2:	6aabc087          	.insn	4, 0x6aabc087
    800016f6:	c0e5                	beqz	s1,800017d6 <input_data+0x11d6>
    800016f8:	23f6                	fld	ft7,344(sp)
    800016fa:	40b4                	lw	a3,64(s1)
    800016fc:	e6b0                	sd	a2,72(a3)
    800016fe:	405d                	c.li	zero,23
    80001700:	4bd1                	li	s7,20
    80001702:	fd2240e3          	blt	tp,s2,800016c2 <input_data+0x10c2>
    80001706:	c031                	beqz	s0,8000174a <input_data+0x114a>
    80001708:	7718                	ld	a4,40(a4)
    8000170a:	e09340cb          	fnmsub.s	ft1,ft6,fs1,ft8,rmm
    8000170e:	4054                	lw	a3,4(s0)
    80001710:	81d8                	.insn	2, 0x81d8
    80001712:	61e5bf2f          	amoand.d	t5,t5,(a1)
    80001716:	bba1                	j	8000146e <input_data+0xe6e>
    80001718:	c8f5                	beqz	s1,8000180c <input_data+0x120c>
    8000171a:	4081                	li	ra,0
    8000171c:	0492                	slli	s1,s1,0x4
    8000171e:	4115                	li	sp,5
    80001720:	40ee57a3          	.insn	4, 0x40ee57a3
    80001724:	7286                	ld	t0,96(sp)
    80001726:	c09e                	sw	t2,64(sp)
    80001728:	2b0a                	fld	fs6,128(sp)
    8000172a:	c010                	sw	a2,0(s0)
    8000172c:	410dab87          	flw	fs7,1040(s11)
    80001730:	5bd5                	li	s7,-11
    80001732:	f9b6bf5b          	.insn	4, 0xf9b6bf5b
    80001736:	d8b6c107          	.insn	4, 0xd8b6c107
    8000173a:	40b4                	lw	a3,64(s1)
    8000173c:	359c                	fld	fa5,40(a1)
    8000173e:	4a1b4113          	xori	sp,s6,1185
    80001742:	4c443fbf 15f4bfc7 	.insn	8, 0x15f4bfc74c443fbf
    8000174a:	c002                	sw	zero,0(sp)
    8000174c:	9f4d                	.insn	2, 0x9f4d
    8000174e:	99d04103          	lbu	sp,-1635(zero) # fffffffffffff99d <_end+0xffffffff7ffee99d>
    80001752:	c07c                	sw	a5,68(s0)
    80001754:	8656                	mv	a2,s5
    80001756:	b40fc103          	lbu	sp,-1216(t6)
    8000175a:	c040                	sw	s0,4(s0)
    8000175c:	5ba9                	li	s7,-22
    8000175e:	697dc0c7          	fmsub.s	ft1,fs11,fs7,fa3,rmm
    80001762:	c0ec                	sw	a1,68(s1)
    80001764:	c078522f          	.insn	4, 0xc078522f
    80001768:	c745                	beqz	a4,80001810 <input_data+0x1210>
    8000176a:	40d2                	lw	ra,20(sp)
    8000176c:	390d                	addiw	s2,s2,-29
    8000176e:	40b0                	lw	a2,64(s1)
    80001770:	a53c                	fsd	fa5,72(a0)
    80001772:	40e8                	lw	a0,68(s1)
    80001774:	59bc                	lw	a5,112(a1)
    80001776:	8406bff7          	.insn	4, 0x8406bff7
    8000177a:	bfee                	fsd	fs11,504(sp)
    8000177c:	3d71                	addiw	s10,s10,-4
    8000177e:	410d                	li	sp,3
    80001780:	bc315b57          	vfnmsac.vf	v22,ft2,v3,v0.t
    80001784:	2416                	fld	fs0,320(sp)
    80001786:	40f1                	li	ra,28
    80001788:	40f548ef          	jal	a7,80056396 <_end+0x45396>
    8000178c:	e90a                	sd	sp,144(sp)
    8000178e:	c0e4                	sw	s1,68(s1)
    80001790:	bf963897          	auipc	a7,0xbf963
    80001794:	aa8d                	j	80001906 <input_data+0x1306>
    80001796:	409f 13d5 4104      	.insn	6, 0x410413d5409f
    8000179c:	6a61                	lui	s4,0x18
    8000179e:	c10c                	sw	a1,0(a0)
    800017a0:	5200                	lw	s0,32(a2)
    800017a2:	856c3fc3          	.insn	4, 0x856c3fc3
    800017a6:	4110                	lw	a2,0(a0)
    800017a8:	7035                	c.lui	zero,0xfffed
    800017aa:	411e                	lw	sp,196(sp)
    800017ac:	fd22                	sd	s0,184(sp)
    800017ae:	c03d                	beqz	s0,80001814 <input_data+0x1214>
    800017b0:	af51                	j	80001f44 <input_data+0x1944>
    800017b2:	40b1                	li	ra,12
    800017b4:	3f21ffe7          	.insn	4, 0x3f21ffe7
    800017b8:	c018167b          	.insn	4, 0xc018167b
    800017bc:	db5e                	sw	s7,180(sp)
    800017be:	407f 0286 c00e 562c 	.insn	18, 0xc09be79f403f1f9240e8562cc00e0286407f
    800017c6:	40e8 1f92 403f e79f 
    800017ce:	c09b 
    800017d0:	8ad9                	andi	a3,a3,22
    800017d2:	c0ae                	sw	a1,64(sp)
    800017d4:	614e                	ld	sp,208(sp)
    800017d6:	bf3d                	j	80001714 <input_data+0x1114>
    800017d8:	a5fc                	fsd	fa5,200(a1)
    800017da:	40ff fefc 4038 0be5 	.insn	18, 0x40ddc3d9407b16e840060be54038fefc40ff
    800017e2:	4006 16e8 407b c3d9 
    800017ea:	40dd 
    800017ec:	b669                	j	80001376 <input_data+0xd76>
    800017ee:	e6e240f7          	.insn	4, 0xe6e240f7
    800017f2:	4046                	.insn	2, 0x4046
    800017f4:	745f c111 3244      	.insn	6, 0x3244c111745f
    800017fa:	401a                	.insn	2, 0x401a
    800017fc:	83a1                	srli	a5,a5,0x8
    800017fe:	c009                	beqz	s0,80001800 <input_data+0x1200>
    80001800:	b510                	fsd	fa2,40(a0)
    80001802:	c110                	sw	a2,0(a0)
    80001804:	99f8                	.insn	2, 0x99f8
    80001806:	efb7c107          	.insn	4, 0xefb7c107
    8000180a:	4025                	c.li	zero,9
    8000180c:	3340                	fld	fs0,160(a4)
    8000180e:	40f6                	lw	ra,92(sp)
    80001810:	3f3a                	fld	ft10,424(sp)
    80001812:	403c                	lw	a5,64(s0)
    80001814:	e8ee                	sd	s11,80(sp)
    80001816:	3ffd                	addiw	t6,t6,-1
    80001818:	1041                	c.nop	-16
    8000181a:	406c                	lw	a1,68(s0)
    8000181c:	0d99                	addi	s11,s11,6
    8000181e:	404d                	c.li	zero,19
    80001820:	539c                	lw	a5,32(a5)
    80001822:	ef1c40eb          	.insn	4, 0xef1c40eb
    80001826:	bfea                	fsd	fs10,504(sp)
    80001828:	40edaceb          	.insn	4, 0x40edaceb
    8000182c:	4cba                	lw	s9,140(sp)
    8000182e:	c016                	sw	t0,0(sp)
    80001830:	3a0c                	fld	fa1,48(a2)
    80001832:	c10e                	sw	gp,128(sp)
    80001834:	2b84                	fld	fs1,16(a5)
    80001836:	3fc2                	fld	ft11,48(sp)
    80001838:	580c                	lw	a1,48(s0)
    8000183a:	40ff 7d6f 4106 416a 	.insn	18, 0x4043682bc0863934411e416a41067d6f40ff
    80001842:	411e 3934 c086 682b 
    8000184a:	4043 
    8000184c:	c105596f          	jal	s2,7ff56c5c <_start-0xa93a4>
    80001850:	c2f2                	sw	t3,68(sp)
    80001852:	5558c0c3          	.insn	4, 0x5558c0c3
    80001856:	bfcd                	j	80001848 <input_data+0x1248>
    80001858:	66be                	ld	a3,456(sp)
    8000185a:	3ff9                	addiw	t6,t6,-2
    8000185c:	c114f6b7          	lui	a3,0xc114f
    80001860:	8a55                	andi	a2,a2,21
    80001862:	84f1c0b7          	lui	ra,0x84f1c
    80001866:	3ec6                	fld	ft9,112(sp)
    80001868:	ebe6                	sd	s9,464(sp)
    8000186a:	40e2                	lw	ra,24(sp)
    8000186c:	3722                	fld	fa4,40(sp)
    8000186e:	4051                	c.li	zero,20
    80001870:	a9a4                	fsd	fs1,80(a1)
    80001872:	c0e5                	beqz	s1,80001952 <input_data+0x1352>
    80001874:	f938                	sd	a4,112(a0)
    80001876:	c08d                	beqz	s1,80001898 <input_data+0x1298>
    80001878:	d72e                	sw	a1,172(sp)
    8000187a:	4094                	lw	a3,0(s1)
    8000187c:	a268                	fsd	fa0,192(a2)
    8000187e:	c0e0                	sw	s0,68(s1)
    80001880:	c540                	sw	s0,12(a0)
    80001882:	411f 3c6d c05f      	.insn	6, 0xc05f3c6d411f
    80001888:	e4a4                	sd	s1,72(s1)
    8000188a:	c101                	beqz	a0,8000188a <input_data+0x128a>
    8000188c:	aa72                	fsd	ft8,272(sp)
    8000188e:	c118                	sw	a4,0(a0)
    80001890:	3f8caceb          	.insn	4, 0x3f8caceb
    80001894:	1512                	slli	a0,a0,0x24
    80001896:	c04c                	sw	a1,4(s0)
    80001898:	7e7a                	ld	t3,440(sp)
    8000189a:	c09a                	sw	t1,64(sp)
    8000189c:	0e24                	addi	s1,sp,792
    8000189e:	40d0                	lw	a2,4(s1)
    800018a0:	fda0                	sd	s0,120(a1)
    800018a2:	3f08                	fld	fa0,56(a4)
    800018a4:	445a                	lw	s0,148(sp)
    800018a6:	4101                	li	sp,0
    800018a8:	4089                	li	ra,2
    800018aa:	3f3d                	addiw	t5,t5,-17
    800018ac:	e3f5                	bnez	a5,80001990 <input_data+0x1390>
    800018ae:	6d31c08f          	.insn	4, 0x6d31c08f
    800018b2:	40ca                	lw	ra,144(sp)
    800018b4:	af36                	fsd	fa3,408(sp)
    800018b6:	4002                	.insn	2, 0x4002
    800018b8:	40419ab3          	.insn	4, 0x40419ab3
    800018bc:	0efa                	slli	t4,t4,0x1e
    800018be:	c0c9                	beqz	s1,80001940 <input_data+0x1340>
    800018c0:	39d6                	fld	fs3,368(sp)
    800018c2:	3f8e                	fld	ft11,224(sp)
    800018c4:	42f2                	lw	t0,28(sp)
    800018c6:	bf46                	fsd	fa7,440(sp)
    800018c8:	e0d2                	sd	s4,64(sp)
    800018ca:	4034                	lw	a3,64(s0)
    800018cc:	e32c                	sd	a1,64(a4)
    800018ce:	c0a5                	beqz	s1,8000192e <input_data+0x132e>
    800018d0:	1d71                	addi	s10,s10,-4
    800018d2:	c1f03fff b76bbf57 	.insn	16, 0x6e5040adeea63f8db76bbf57c1f03fff
    800018da:	eea63f8d 6e5040ad 
    800018e2:	a9a1c00f          	.insn	4, 0xa9a1c00f
    800018e6:	411a                	lw	sp,132(sp)
    800018e8:	f7d4                	sd	a3,168(a5)
    800018ea:	c116                	sw	t0,128(sp)
    800018ec:	410975b7          	lui	a1,0x41097
    800018f0:	5f4a                	lw	t5,176(sp)
    800018f2:	bf24                	fsd	fs1,120(a4)
    800018f4:	c11d980f          	.insn	4, 0xc11d980f
    800018f8:	b339                	j	80001606 <input_data+0x1006>
    800018fa:	3ff1                	addiw	t6,t6,-4
    800018fc:	40be4f57          	vadc.vxm	v30,v11,t3,v0
    80001900:	efd2                	sd	s4,472(sp)
    80001902:	40ce                	lw	ra,208(sp)
    80001904:	e710                	sd	a2,8(a4)
    80001906:	be99                	j	8000145c <input_data+0xe5c>
    80001908:	e832                	sd	a2,16(sp)
    8000190a:	c096                	sw	t0,64(sp)
    8000190c:	a472                	fsd	ft8,8(sp)
    8000190e:	bfc5                	j	800018fe <input_data+0x12fe>
    80001910:	febd                	bnez	a3,8000188e <input_data+0x128e>
    80001912:	c0fe                	sw	t6,64(sp)
    80001914:	40d2e363          	bltu	t0,a3,80001d1a <input_data+0x171a>
    80001918:	5a38                	lw	a4,112(a2)
    8000191a:	c0c9                	beqz	s1,8000199c <input_data+0x139c>
    8000191c:	bfe6                	fsd	fs9,504(sp)
    8000191e:	c0f2                	sw	t3,64(sp)
    80001920:	bdb6                	fsd	fa3,248(sp)
    80001922:	4071                	c.li	zero,28
    80001924:	7e35                	lui	t3,0xfffed
    80001926:	18e3c083          	lbu	ra,398(t2)
    8000192a:	c0f8                	sw	a4,68(s1)
    8000192c:	4041dddb          	.insn	4, 0x4041dddb
    80001930:	40b5b0a7          	fsd	fa1,1025(a1) # 41097401 <_start-0x3ef68bff>
    80001934:	400252e3          	bgez	tp,80002538 <input_data+0x1f38>
    80001938:	bfcb55e7          	.insn	4, 0xbfcb55e7
    8000193c:	2381                	sext.w	t2,t2
    8000193e:	c0fa                	sw	t5,64(sp)
    80001940:	eb3c                	sd	a5,80(a4)
    80001942:	65aec0ab          	.insn	4, 0x65aec0ab
    80001946:	4036                	.insn	2, 0x4036
    80001948:	d889                	beqz	s1,8000185a <input_data+0x125a>
    8000194a:	4108                	lw	a0,0(a0)
    8000194c:	a155                	j	80001df0 <input_data+0x17f0>
    8000194e:	bfb5                	j	800018ca <input_data+0x12ca>
    80001950:	b5fc                	fsd	fa5,232(a1)
    80001952:	40b2                	lw	ra,12(sp)
    80001954:	56c9                	li	a3,-14
    80001956:	e25d3fd3          	.insn	4, 0xe25d3fd3
    8000195a:	bf30                	fsd	fa2,120(a4)
    8000195c:	fc85                	bnez	s1,80001894 <input_data+0x1294>
    8000195e:	718940d3          	.insn	4, 0x718940d3
    80001962:	c109                	beqz	a0,80001964 <input_data+0x1364>
    80001964:	623d                	lui	tp,0xf
    80001966:	5fdc40c7          	.insn	4, 0x5fdc40c7
    8000196a:	ae4bc107          	.insn	4, 0xae4bc107
    8000196e:	bea2                	fsd	fs0,376(sp)
    80001970:	bea5                	j	800014e8 <input_data+0xee8>
    80001972:	fa89401b          	.insn	4, 0xfa89401b
    80001976:	4d4040ab          	.insn	4, 0x4d4040ab
    8000197a:	3fe9                	addiw	t6,t6,-6
    8000197c:	608d                	lui	ra,0x3
    8000197e:	59f340f3          	.insn	4, 0x59f340f3
    80001982:	bfae                	fsd	fa1,504(sp)
    80001984:	bbe4                	fsd	fs1,240(a5)
    80001986:	c00e                	sw	gp,0(sp)
    80001988:	400f59ff 40f9b18c 	.insn	20, 0x40ed692f4022503cc0998f0640f9b18c400f59ff
    80001990:	c0998f06 4022503c 
    80001998:	40ed692f 
    8000199c:	4734                	lw	a3,72(a4)
    8000199e:	40ed                	li	ra,27
    800019a0:	c0b56347          	fmsub.s	ft6,fa0,fa1,fs8,unknown
    800019a4:	db1a                	sw	t1,180(sp)
    800019a6:	c112                	sw	tp,128(sp)
    800019a8:	6e4a                	ld	t3,144(sp)
    800019aa:	409e                	lw	ra,196(sp)
    800019ac:	77ba                	ld	a5,424(sp)
    800019ae:	c118                	sw	a4,0(a0)
    800019b0:	401d9fcf          	fnmadd.s	ft11,fs11,ft1,fs0,rtz
    800019b4:	bfcd                	j	800019a6 <input_data+0x13a6>
    800019b6:	c945c0c7          	fmsub.s	ft1,fa1,fs4,fs9,rmm
    800019ba:	84e240c7          	.insn	4, 0x84e240c7
    800019be:	c0ed                	beqz	s1,80001aa0 <input_data+0x14a0>
    800019c0:	303e                	fld	ft0,488(sp)
    800019c2:	c0b1                	beqz	s1,80001a06 <input_data+0x1406>
    800019c4:	eaff c0c4 907b c0a4 	.insn	22, 0x2da7c0caa3e23eb2e92540e4c7e3c0a4907bc0c4eaff
    800019cc:	c7e3 40e4 e925 3eb2 
    800019d4:	a3e2 c0ca 2da7 
    800019da:	40a9                	li	ra,10
    800019dc:	02b2                	slli	t0,t0,0xc
    800019de:	4081                	li	ra,0
    800019e0:	051d                	addi	a0,a0,7
    800019e2:	bfde                	fsd	fs7,504(sp)
    800019e4:	fea0                	sd	s0,120(a3)
    800019e6:	4069                	c.li	zero,26
    800019e8:	5b95                	li	s7,-27
    800019ea:	c10d                	beqz	a0,80001a0c <input_data+0x140c>
    800019ec:	ace2                	fsd	fs8,88(sp)
    800019ee:	c09d                	beqz	s1,80001a14 <input_data+0x1414>
    800019f0:	5b8c                	lw	a1,48(a5)
    800019f2:	9dd04097          	auipc	ra,0x9dd04
    800019f6:	4034                	lw	a3,64(s0)
    800019f8:	33b9                	addiw	t2,t2,-18
    800019fa:	c00e                	sw	gp,0(sp)
    800019fc:	b359                	j	80001782 <input_data+0x1182>
    800019fe:	1e8a40d3          	.insn	4, 0x1e8a40d3
    80001a02:	40ad                	li	ra,11
    80001a04:	64b2                	ld	s1,264(sp)
    80001a06:	bf7e                	fsd	ft11,440(sp)
    80001a08:	c112450f          	.insn	4, 0xc112450f
    80001a0c:	c044049b          	addiw	s1,s0,-1020
    80001a10:	407f9a67          	.insn	4, 0x407f9a67
    80001a14:	8f21                	xor	a4,a4,s0
    80001a16:	bf78                	fsd	fa4,248(a4)
    80001a18:	d03c                	sw	a5,96(s0)
    80001a1a:	c096                	sw	t0,64(sp)
    80001a1c:	0eda                	slli	t4,t4,0x16
    80001a1e:	40c5                	li	ra,17
    80001a20:	0b1c                	addi	a5,sp,400
    80001a22:	3eb2                	fld	ft9,296(sp)
    80001a24:	5ea9                	li	t4,-22
    80001a26:	40cd                	li	ra,19
    80001a28:	c09a3b13          	sltiu	s6,s4,-1015
    80001a2c:	4102a617          	auipc	a2,0x4102a
    80001a30:	6608                	ld	a0,8(a2)
    80001a32:	40b2                	lw	ra,12(sp)
    80001a34:	cd8c                	sw	a1,24(a1)
    80001a36:	c0fc                	sw	a5,68(s1)
    80001a38:	c0b64237          	lui	tp,0xc0b64
    80001a3c:	f994                	sd	a3,48(a1)
    80001a3e:	88eebfbf f3cb40ee 	.insn	8, 0xf3cb40ee88eebfbf
    80001a46:	40e9                	li	ra,26
    80001a48:	1dc5                	addi	s11,s11,-15
    80001a4a:	79c0c0c3          	fmadd.s	ft1,ft1,ft8,fa5,rmm
    80001a4e:	c01d                	beqz	s0,80001a74 <input_data+0x1474>
    80001a50:	c426                	sw	s1,8(sp)
    80001a52:	c08d                	beqz	s1,80001a74 <input_data+0x1474>
    80001a54:	0518                	addi	a4,sp,640
    80001a56:	2e8c4107          	.insn	4, 0x2e8c4107
    80001a5a:	bf9d                	j	800019d0 <input_data+0x13d0>
    80001a5c:	2e66                	fld	ft8,88(sp)
    80001a5e:	3fee                	fld	ft11,248(sp)
    80001a60:	5902                	lw	s2,32(sp)
    80001a62:	c0c0                	sw	s0,4(s1)
    80001a64:	0a5f 4118 6f5f      	.insn	6, 0x6f5f41180a5f
    80001a6a:	c7cbc0d3          	.insn	4, 0xc7cbc0d3
    80001a6e:	4116                	lw	sp,68(sp)
    80001a70:	c107c157          	.insn	4, 0xc107c157
    80001a74:	223a                	fld	ft4,392(sp)
    80001a76:	4050                	lw	a2,4(s0)
    80001a78:	5cd5                	li	s9,-11
    80001a7a:	c0bc                	sw	a5,64(s1)
    80001a7c:	6e69                	lui	t3,0x1a
    80001a7e:	21ee3f8f          	.insn	4, 0x21ee3f8f
    80001a82:	c00a                	sw	sp,0(sp)
    80001a84:	6bba                	ld	s7,392(sp)
    80001a86:	c0ff 14e8 405f 3db4 	.insn	18, 0xc0cff25ec08be947402f3db4405f14e8c0ff
    80001a8e:	402f e947 c08b f25e 
    80001a96:	c0cf 
    80001a98:	be925d07          	.insn	4, 0xbe925d07
    80001a9c:	8d1f 4111 f4cf      	.insn	6, 0xf4cf41118d1f
    80001aa2:	4102                	lw	sp,0(sp)
    80001aa4:	19d4                	addi	a3,sp,244
    80001aa6:	8884c0f7          	.insn	4, 0x8884c0f7
    80001aaa:	78c0c117          	auipc	sp,0x78c0c
    80001aae:	401a                	.insn	2, 0x401a
    80001ab0:	390d                	addiw	s2,s2,-29
    80001ab2:	810a4043          	fmadd.s	ft0,fs4,fa6,fa6,rmm
    80001ab6:	3d1c                	fld	fa5,56(a0)
    80001ab8:	42ee                	lw	t0,216(sp)
    80001aba:	ef4abf6f          	jal	t5,7ffad1ae <_start-0x52e52>
    80001abe:	0e30bdfb          	.insn	4, 0x0e30bdfb
    80001ac2:	4036                	.insn	2, 0x4036
    80001ac4:	1808                	addi	a0,sp,48
    80001ac6:	4116                	lw	sp,68(sp)
    80001ac8:	f2bc                	sd	a5,96(a3)
    80001aca:	4111                	li	sp,4
    80001acc:	1e86                	slli	t4,t4,0x21
    80001ace:	4109                	li	sp,2
    80001ad0:	41012a8f          	.insn	4, 0x41012a8f
    80001ad4:	df01                	beqz	a4,800019ec <input_data+0x13ec>
    80001ad6:	401a                	.insn	2, 0x401a
    80001ad8:	68c4                	ld	s1,144(s1)
    80001ada:	06ab40d7          	.insn	4, 0x06ab40d7
    80001ade:	40c9                	li	ra,18
    80001ae0:	f645                	bnez	a2,80001a88 <input_data+0x1488>
    80001ae2:	bff5                	j	80001ade <input_data+0x14de>
    80001ae4:	727e                	ld	tp,504(sp)
    80001ae6:	c075                	beqz	s0,80001bca <input_data+0x15ca>
    80001ae8:	b44e                	fsd	fs3,40(sp)
    80001aea:	5ac43f83          	ld	t6,1452(s0)
    80001aee:	3ff2                	fld	ft11,312(sp)
    80001af0:	8251                	srli	a2,a2,0x14
    80001af2:	e796411b          	.insn	4, 0xe796411b
    80001af6:	3da1                	addiw	s11,s11,-24
    80001af8:	258d                	addiw	a1,a1,3
    80001afa:	c0f9                	beqz	s1,80001bc0 <input_data+0x15c0>
    80001afc:	8ba0                	.insn	2, 0x8ba0
    80001afe:	c0a5                	beqz	s1,80001b5e <input_data+0x155e>
    80001b00:	cac1                	beqz	a3,80001b90 <input_data+0x1590>
    80001b02:	03e4c073          	.insn	4, 0x03e4c073
    80001b06:	08964093          	xori	ra,a2,137
    80001b0a:	bd94                	fsd	fa3,56(a1)
    80001b0c:	03ed                	addi	t2,t2,27
    80001b0e:	c0ba                	sw	a4,64(sp)
    80001b10:	40b42dc7          	fmsub.s	fs11,fs0,fa1,fs0,rdn
    80001b14:	40854b23          	.insn	4, 0x40854b23
    80001b18:	40fa0d67          	jalr	s10,1039(s4) # 1840f <_start-0x7ffe7bf1>
    80001b1c:	ba06                	fsd	ft1,304(sp)
    80001b1e:	4118                	lw	a4,0(a0)
    80001b20:	81d4                	.insn	2, 0x81d4
    80001b22:	c0fc                	sw	a5,68(s1)
    80001b24:	6901                	.insn	2, 0x6901
    80001b26:	c040                	sw	s0,4(s0)
    80001b28:	0c01                	addi	s8,s8,0
    80001b2a:	410a                	lw	sp,128(sp)
    80001b2c:	5a9d                	li	s5,-25
    80001b2e:	40ba                	lw	ra,140(sp)
    80001b30:	4111323b          	.insn	4, 0x4111323b
    80001b34:	f706                	sd	ra,424(sp)
    80001b36:	40a0                	lw	s0,64(s1)
    80001b38:	feca                	sd	s2,376(sp)
    80001b3a:	407f 0523 408a 7ffe 	.insn	18, 0x407c191541075d47c0827ffe408a0523407f
    80001b42:	c082 5d47 4107 1915 
    80001b4a:	407c 
    80001b4c:	bb38                	fsd	fa4,112(a4)
    80001b4e:	407c                	lw	a5,68(s0)
    80001b50:	6674                	ld	a3,200(a2)
    80001b52:	c105                	beqz	a0,80001b72 <input_data+0x1572>
    80001b54:	7b94                	ld	a3,48(a5)
    80001b56:	c1eec0af          	.insn	4, 0xc1eec0af
    80001b5a:	c119                	beqz	a0,80001b60 <input_data+0x1560>
    80001b5c:	334e                	fld	ft6,240(sp)
    80001b5e:	408a                	lw	ra,128(sp)
    80001b60:	d780                	sw	s0,40(a5)
    80001b62:	40ba                	lw	ra,140(sp)
    80001b64:	6941                	lui	s2,0x10
    80001b66:	411a                	lw	sp,132(sp)
    80001b68:	bf59744f          	.insn	4, 0xbf59744f
    80001b6c:	4e5d                	li	t3,23
    80001b6e:	c0d6                	sw	s5,64(sp)
    80001b70:	2eb8                	fld	fa4,88(a3)
    80001b72:	c0b1                	beqz	s1,80001bb6 <input_data+0x15b6>
    80001b74:	f7fd                	bnez	a5,80001b62 <input_data+0x1562>
    80001b76:	bfe4                	fsd	fs1,248(a5)
    80001b78:	c1188ea7          	.insn	4, 0xc1188ea7
    80001b7c:	912e                	add	sp,sp,a1
    80001b7e:	c018                	sw	a4,0(s0)
    80001b80:	72b0                	ld	a2,96(a3)
    80001b82:	c064                	sw	s1,68(s0)
    80001b84:	e3d2                	sd	s4,448(sp)
    80001b86:	c03a                	sw	a4,0(sp)
    80001b88:	264e                	fld	fa2,208(sp)
    80001b8a:	40ff ed5f 3f74 9631 	.insn	18, 0xc0aedd92c0dff404406596313f74ed5f40ff
    80001b92:	4065 f404 c0df dd92 
    80001b9a:	c0ae 
    80001b9c:	1265                	addi	tp,tp,-7 # ffffffffc0b63ff9 <_end+0xffffffff40b52ff9>
    80001b9e:	4108                	lw	a0,0(a0)
    80001ba0:	8334                	.insn	2, 0x8334
    80001ba2:	c060                	sw	s0,68(s0)
    80001ba4:	931c                	.insn	2, 0x931c
    80001ba6:	10e6c10b          	.insn	4, 0x10e6c10b
    80001baa:	40fe                	lw	ra,220(sp)
    80001bac:	008a                	slli	ra,ra,0x2
    80001bae:	bdad3fbf 027e4018 	.insn	8, 0x027e4018bdad3fbf
    80001bb6:	c04c                	sw	a1,4(s0)
    80001bb8:	dbaa                	sw	a0,244(sp)
    80001bba:	4102                	lw	sp,0(sp)
    80001bbc:	4056be1b          	.insn	4, 0x4056be1b
    80001bc0:	e81d                	bnez	s0,80001bf6 <input_data+0x15f6>
    80001bc2:	bf35                	j	80001afe <input_data+0x14fe>
    80001bc4:	f156                	sd	s5,160(sp)
    80001bc6:	c0f5                	beqz	s1,80001caa <input_data+0x16aa>
    80001bc8:	79f8                	ld	a4,240(a1)
    80001bca:	2396c103          	lbu	sp,569(a3) # ffffffffc114f239 <_end+0xffffffff4113e239>
    80001bce:	01994053          	fadd.s	ft0,fs2,fs9,rmm
    80001bd2:	c108                	sw	a0,0(a0)
    80001bd4:	7ed0                	ld	a2,184(a3)
    80001bd6:	3f7c                	fld	fa5,248(a4)
    80001bd8:	e3b4                	sd	a3,64(a5)
    80001bda:	410d                	li	sp,3
    80001bdc:	a066                	fsd	fs9,0(sp)
    80001bde:	40a1                	li	ra,8
    80001be0:	896a                	mv	s2,s10
    80001be2:	404d                	c.li	zero,19
    80001be4:	0f0a                	slli	t5,t5,0x2
    80001be6:	3dda                	fld	fs11,432(sp)
    80001be8:	ffe5                	bnez	a5,80001be0 <input_data+0x15e0>
    80001bea:	c094                	sw	a3,0(s1)
    80001bec:	40dcee67          	.insn	4, 0x40dcee67
    80001bf0:	9dae                	add	s11,s11,a1
    80001bf2:	3f9e                	fld	ft11,480(sp)
    80001bf4:	c056fdeb          	.insn	4, 0xc056fdeb
    80001bf8:	ce36                	sw	a3,28(sp)
    80001bfa:	3e36                	fld	ft8,360(sp)
    80001bfc:	c116e3f3          	csrrsi	t2,hpmcounter17,13
    80001c00:	5b6a                	lw	s6,184(sp)
    80001c02:	c0ff 2a3b 411e 604a 	.insn	18, 0x40ea9878c0205e3ec0a2604a411e2a3bc0ff
    80001c0a:	c0a2 5e3e c020 9878 
    80001c12:	40ea 
    80001c14:	404f6413          	ori	s0,t5,1028
    80001c18:	0ca2                	slli	s9,s9,0x8
    80001c1a:	f7adc10f          	.insn	4, 0xf7adc10f
    80001c1e:	4b6840f3          	.insn	4, 0x4b6840f3
    80001c22:	4101                	li	sp,0
    80001c24:	b189                	j	80001866 <input_data+0x1266>
    80001c26:	c0cd                	beqz	s1,80001cc8 <input_data+0x16c8>
    80001c28:	afee                	fsd	fs11,472(sp)
    80001c2a:	3682400b          	.insn	4, 0x3682400b
    80001c2e:	e8d33fdb          	.insn	4, 0xe8d33fdb
    80001c32:	40b0                	lw	a2,64(s1)
    80001c34:	5bdd                	li	s7,-9
    80001c36:	c004                	sw	s1,0(s0)
    80001c38:	c11662f7          	.insn	4, 0xc11662f7
    80001c3c:	b4c2                	fsd	fa6,104(sp)
    80001c3e:	409e                	lw	ra,196(sp)
    80001c40:	b9c5                	j	80001930 <input_data+0x1330>
    80001c42:	50c4408f          	.insn	4, 0x50c4408f
    80001c46:	410a                	lw	sp,128(sp)
    80001c48:	5e1e                	lw	t3,228(sp)
    80001c4a:	4101                	li	sp,0
    80001c4c:	f64d                	bnez	a2,80001bf6 <input_data+0x15f6>
    80001c4e:	4036                	.insn	2, 0x4036
    80001c50:	86e6                	mv	a3,s9
    80001c52:	561b40eb          	.insn	4, 0x561b40eb
    80001c56:	40a6                	lw	ra,72(sp)
    80001c58:	1ede                	slli	t4,t4,0x37
    80001c5a:	d4f340f7          	.insn	4, 0xd4f340f7
    80001c5e:	408e                	lw	ra,192(sp)
    80001c60:	e810                	sd	a2,16(s0)
    80001c62:	d8a340c7          	fmsub.s	ft1,ft6,fa0,fs11,rmm
    80001c66:	c094                	sw	a3,0(s1)
    80001c68:	416c                	lw	a1,68(a0)
    80001c6a:	4001                	c.li	zero,0
    80001c6c:	b83a                	fsd	fa4,48(sp)
    80001c6e:	c115                	beqz	a0,80001c92 <input_data+0x1692>
    80001c70:	c08d7c2f          	.insn	4, 0xc08d7c2f
    80001c74:	c0298a3b          	.insn	4, 0xc0298a3b
    80001c78:	97c8                	.insn	2, 0x97c8
    80001c7a:	3ea0                	fld	fs0,120(a3)
    80001c7c:	60e6                	ld	ra,88(sp)
    80001c7e:	410e                	lw	sp,192(sp)
    80001c80:	40946c53          	.insn	4, 0x40946c53
    80001c84:	2ea1                	addiw	t4,t4,8
    80001c86:	fe824083          	lbu	ra,-24(tp) # ffffffffffffffe8 <_end+0xffffffff7ffeefe8>
    80001c8a:	6306c0ab          	.insn	4, 0x6306c0ab
    80001c8e:	c0b4                	sw	a3,64(s1)
    80001c90:	87be                	mv	a5,a5
    80001c92:	4005                	c.li	zero,1
    80001c94:	f92d                	bnez	a0,80001c06 <input_data+0x1606>
    80001c96:	40da                	lw	ra,148(sp)
    80001c98:	0499                	addi	s1,s1,6
    80001c9a:	95ddc0a3          	.insn	4, 0x95ddc0a3
    80001c9e:	40d1                	li	ra,20
    80001ca0:	eb72                	sd	t3,400(sp)
    80001ca2:	40cd                	li	ra,19
    80001ca4:	c061275b          	.insn	4, 0xc061275b
    80001ca8:	c61e                	sw	t2,12(sp)
    80001caa:	3f4c                	fld	fa1,184(a4)
    80001cac:	e7ea                	sd	s10,456(sp)
    80001cae:	4011                	c.li	zero,4
    80001cb0:	c419                	beqz	s0,80001cbe <input_data+0x16be>
    80001cb2:	c115                	beqz	a0,80001cd6 <input_data+0x16d6>
    80001cb4:	4dea                	lw	s11,152(sp)
    80001cb6:	40f9                	li	ra,30
    80001cb8:	c0fa02eb          	.insn	4, 0xc0fa02eb
    80001cbc:	bf6acb43          	.insn	4, 0xbf6acb43
    80001cc0:	0ae9                	addi	s5,s5,26
    80001cc2:	3f5a                	fld	ft10,432(sp)
    80001cc4:	b09a                	fsd	ft6,96(sp)
    80001cc6:	3fa9                	addiw	t6,t6,-22
    80001cc8:	740a                	ld	s0,160(sp)
    80001cca:	c0a6                	sw	s1,64(sp)
    80001ccc:	6ce8                	ld	a0,216(s1)
    80001cce:	c088                	sw	a0,0(s1)
    80001cd0:	2c3d                	addiw	s8,s8,15
    80001cd2:	40de                	lw	ra,212(sp)
    80001cd4:	18c2                	slli	a7,a7,0x30
    80001cd6:	bfad                	j	80001c50 <input_data+0x1650>
    80001cd8:	41072d8f          	.insn	4, 0x41072d8f
    80001cdc:	b155                	j	80001980 <input_data+0x1380>
    80001cde:	23704103          	lbu	sp,567(zero) # 237 <_start-0x7ffffdc9>
    80001ce2:	0db9c113          	xori	sp,s3,219
    80001ce6:	46d8c0e3          	blt	a7,a3,80002946 <input_data+0x2346>
    80001cea:	be7c                	fsd	fa5,248(a2)
    80001cec:	c05f12c7          	fmsub.s	ft5,ft10,ft5,fs8,rtz
    80001cf0:	7ac2                	ld	s5,48(sp)
    80001cf2:	c0c1                	beqz	s1,80001d72 <input_data+0x1772>
    80001cf4:	b628                	fsd	fa0,104(a2)
    80001cf6:	401a                	.insn	2, 0x401a
    80001cf8:	0d95                	addi	s11,s11,5
    80001cfa:	24fdc01b          	.insn	4, 0x24fdc01b
    80001cfe:	a73540a3          	.insn	4, 0xa73540a3
    80001d02:	c0d9                	beqz	s1,80001d88 <input_data+0x1788>
    80001d04:	4f3e                	lw	t5,204(sp)
    80001d06:	c102                	sw	zero,128(sp)
    80001d08:	82da                	mv	t0,s6
    80001d0a:	c088                	sw	a0,0(s1)
    80001d0c:	114d                	addi	sp,sp,-13 # f8c0da9d <_end+0x78bfca9d>
    80001d0e:	40e1                	li	ra,24
    80001d10:	623d                	lui	tp,0xf
    80001d12:	c02e                	sw	a1,0(sp)
    80001d14:	4dd9                	li	s11,22
    80001d16:	4092                	lw	ra,4(sp)
    80001d18:	036d                	addi	t1,t1,27
    80001d1a:	c05a                	sw	s6,0(sp)
    80001d1c:	f182                	sd	zero,224(sp)
    80001d1e:	40de                	lw	ra,212(sp)
    80001d20:	ebc8                	sd	a0,144(a5)
    80001d22:	7daabfa3          	sd	s10,2015(s5)
    80001d26:	c0a8                	sw	a0,64(s1)
    80001d28:	1548                	addi	a0,sp,676
    80001d2a:	400d                	c.li	zero,3
    80001d2c:	bc9d                	j	800017a2 <input_data+0x11a2>
    80001d2e:	bfc4                	fsd	fs1,184(a5)
    80001d30:	37c9                	addiw	a5,a5,-14
    80001d32:	c114                	sw	a3,0(a0)
    80001d34:	cbf0                	sw	a2,84(a5)
    80001d36:	4119                	li	sp,6
    80001d38:	aac1                	j	80001f08 <input_data+0x1908>
    80001d3a:	408e                	lw	ra,192(sp)
    80001d3c:	7f41                	lui	t5,0xffff0
    80001d3e:	3f0d                	addiw	t5,t5,-29 # fffffffffffeffe3 <_end+0xffffffff7ffdefe3>
    80001d40:	0a5f 402e 3b7a      	.insn	6, 0x3b7a402e0a5f
    80001d46:	4100                	lw	s0,0(a0)
    80001d48:	a858                	fsd	fa4,144(s0)
    80001d4a:	72a14103          	lbu	sp,1834(sp)
    80001d4e:	c0d8                	sw	a4,4(s1)
    80001d50:	07c0                	addi	s0,sp,964
    80001d52:	c01e                	sw	t2,0(sp)
    80001d54:	8621                	srai	a2,a2,0x8
    80001d56:	c10c                	sw	a1,0(a0)
    80001d58:	53b1                	li	t2,-20
    80001d5a:	401f b780 c046      	.insn	6, 0xc046b780401f
    80001d60:	dd64                	sw	s1,124(a0)
    80001d62:	40aa                	lw	ra,136(sp)
    80001d64:	6131                	addi	sp,sp,320
    80001d66:	72b6c11b          	.insn	4, 0x72b6c11b
    80001d6a:	40d0                	lw	a2,4(s1)
    80001d6c:	7cfe                	ld	s9,504(sp)
    80001d6e:	4253bfeb          	.insn	4, 0x4253bfeb
    80001d72:	4082                	lw	ra,0(sp)
    80001d74:	20c5                	addiw	ra,ra,17 # 1dd05a03 <_start-0x622fa5fd>
    80001d76:	3d55409b          	.insn	4, 0x3d55409b
    80001d7a:	40d6                	lw	ra,84(sp)
    80001d7c:	40e2518f          	.insn	4, 0x40e2518f
    80001d80:	49f0                	lw	a2,84(a1)
    80001d82:	4105                	li	sp,1
    80001d84:	40e1f3cb          	fnmsub.s	ft7,ft3,fa4,fs0
    80001d88:	3dde                	fld	fs11,496(sp)
    80001d8a:	3f9a                	fld	ft11,416(sp)
    80001d8c:	4828                	lw	a0,80(s0)
    80001d8e:	5ae8c103          	lbu	sp,1454(a7) # 3f964d3e <_start-0x4069b2c2>
    80001d92:	1252c10b          	.insn	4, 0x1252c10b
    80001d96:	4105                	li	sp,1
    80001d98:	e532                	sd	a2,136(sp)
    80001d9a:	c0e1                	beqz	s1,80001e5a <input_data+0x185a>
    80001d9c:	36f8                	fld	fa4,232(a3)
    80001d9e:	3f91                	addiw	t6,t6,-28
    80001da0:	c08c12fb          	.insn	4, 0xc08c12fb
    80001da4:	53ac                	lw	a1,96(a5)
    80001da6:	bfdd                	j	80001d9c <input_data+0x179c>
    80001da8:	aa54                	fsd	fa3,144(a2)
    80001daa:	c020                	sw	s0,64(s0)
    80001dac:	bbae                	fsd	fa1,496(sp)
    80001dae:	f7a1c033          	.insn	4, 0xf7a1c033
    80001db2:	86b2403f 1e2e4117 	.insn	8, 0x1e2e411786b2403f
    80001dba:	bff4                	fsd	fa3,248(a5)
    80001dbc:	b756                	fsd	fs5,424(sp)
    80001dbe:	c09d                	beqz	s1,80001de4 <input_data+0x17e4>
    80001dc0:	a988                	fsd	fa0,16(a1)
    80001dc2:	4110                	lw	a2,0(a0)
    80001dc4:	d594                	sw	a3,40(a1)
    80001dc6:	4114                	lw	a3,0(a0)
    80001dc8:	a3f0                	fsd	fa2,192(a5)
    80001dca:	40ad                	li	ra,11
    80001dcc:	4539                	li	a0,14
    80001dce:	c079                	beqz	s0,80001e94 <input_data+0x1894>
    80001dd0:	ac19                	j	80001fe6 <input_data+0x19e6>
    80001dd2:	40ea                	lw	ra,152(sp)
    80001dd4:	4b14                	lw	a3,16(a4)
    80001dd6:	c11f 8430 40c8      	.insn	6, 0x40c88430c11f
    80001ddc:	5c0c                	lw	a1,56(s0)
    80001dde:	40f2                	lw	ra,28(sp)
    80001de0:	6048                	ld	a0,128(s0)
    80001de2:	c0a0                	sw	s0,64(s1)
    80001de4:	3f9a                	fld	ft11,416(sp)
    80001de6:	40d6                	lw	ra,84(sp)
    80001de8:	8a22                	mv	s4,s0
    80001dea:	beb9                	j	80001948 <input_data+0x1348>
    80001dec:	a48d                	j	8000204e <input_data+0x1a4e>
    80001dee:	40ad                	li	ra,11
    80001df0:	5df6                	lw	s11,124(sp)
    80001df2:	408e                	lw	ra,192(sp)
    80001df4:	141a                	slli	s0,s0,0x26
    80001df6:	410c                	lw	a1,0(a0)
    80001df8:	54a4                	lw	s1,104(s1)
    80001dfa:	c064                	sw	s1,68(s0)
    80001dfc:	6ba9                	lui	s7,0xa
    80001dfe:	db903fbb          	.insn	4, 0xdb903fbb
    80001e02:	4041                	c.li	zero,16
    80001e04:	ba91                	j	80001758 <input_data+0x1158>
    80001e06:	168bc013          	xori	zero,s7,360
    80001e0a:	1038c057          	vminu.vx	v0,v3,a7,v0.t
    80001e0e:	3fa8                	fld	fa0,120(a5)
    80001e10:	5955                	li	s2,-11
    80001e12:	40ac                	lw	a1,64(s1)
    80001e14:	f27c                	sd	a5,224(a2)
    80001e16:	bf1c                	fsd	fa5,56(a4)
    80001e18:	40a8eb23          	.insn	4, 0x40a8eb23
    80001e1c:	72b2                	ld	t0,296(sp)
    80001e1e:	58a340bb          	.insn	4, 0x58a340bb
    80001e22:	40da                	lw	ra,148(sp)
    80001e24:	c0096cd3          	fcvt.w.s	s9,fs2,unknown
    80001e28:	036d                	addi	t1,t1,27
    80001e2a:	c004                	sw	s1,0(s0)
    80001e2c:	b7a8                	fsd	fa0,104(a5)
    80001e2e:	c092                	sw	tp,64(sp)
    80001e30:	37fc                	fld	fa5,232(a5)
    80001e32:	f560403b          	.insn	4, 0xf560403b
    80001e36:	d930c0a7          	.insn	4, 0xd930c0a7
    80001e3a:	405d                	c.li	zero,23
    80001e3c:	89a9                	andi	a1,a1,10
    80001e3e:	4019                	c.li	zero,6
    80001e40:	0ea6                	slli	t4,t4,0x9
    80001e42:	4044                	lw	s1,4(s0)
    80001e44:	9d35                	addw	a0,a0,a3
    80001e46:	4102                	lw	sp,0(sp)
    80001e48:	f48c                	sd	a1,40(s1)
    80001e4a:	404a                	.insn	2, 0x404a
    80001e4c:	3fd3c18b          	.insn	4, 0x3fd3c18b
    80001e50:	9b7e                	add	s6,s6,t6
    80001e52:	c0fd                	beqz	s1,80001f38 <input_data+0x1938>
    80001e54:	3205                	addiw	tp,tp,-31 # efe1 <_start-0x7fff101f>
    80001e56:	4079                	c.li	zero,30
    80001e58:	409df59b          	.insn	4, 0x409df59b
    80001e5c:	c096dac7          	fmsub.s	fs5,fa3,fs1,fs8,unknown
    80001e60:	5d1e                	lw	s10,228(sp)
    80001e62:	c0aa                	sw	a0,64(sp)
    80001e64:	410a12c7          	fmsub.s	ft5,fs4,fa6,fs0,rtz
    80001e68:	7829                	lui	a6,0xfffea
    80001e6a:	3fc2                	fld	ft11,48(sp)
    80001e6c:	9e1d                	subw	a2,a2,a5
    80001e6e:	c085                	beqz	s1,80001e8e <input_data+0x188e>
    80001e70:	3f0f45bf c0eec144 	.insn	8, 0xc0eec1443f0f45bf
    80001e78:	f5fd                	bnez	a1,80001e66 <input_data+0x1866>
    80001e7a:	c08c                	sw	a1,0(s1)
    80001e7c:	3fe098bb          	.insn	4, 0x3fe098bb
    80001e80:	beceb2af          	.insn	4, 0xbeceb2af
    80001e84:	4385                	li	t2,1
    80001e86:	40e2                	lw	ra,24(sp)
    80001e88:	07a0                	addi	s0,sp,968
    80001e8a:	409d                	li	ra,7
    80001e8c:	a168                	fsd	fa0,192(a0)
    80001e8e:	c161c0b3          	.insn	4, 0xc161c0b3
    80001e92:	3f31                	addiw	t5,t5,-20
    80001e94:	a212                	fsd	ft4,256(sp)
    80001e96:	3f86                	fld	ft11,96(sp)
    80001e98:	5871                	li	a6,-4
    80001e9a:	c040                	sw	s0,4(s0)
    80001e9c:	3fe1a5d3          	.insn	4, 0x3fe1a5d3
    80001ea0:	66e0                	ld	s0,200(a3)
    80001ea2:	40f9                	li	ra,30
    80001ea4:	ba28                	fsd	fa0,112(a2)
    80001ea6:	c114                	sw	a3,0(a0)
    80001ea8:	468d                	li	a3,3
    80001eaa:	40c1                	li	ra,16
    80001eac:	ffa0                	sd	s0,120(a5)
    80001eae:	be0e                	fsd	ft3,312(sp)
    80001eb0:	3ff136e7          	.insn	4, 0x3ff136e7
    80001eb4:	bdb8f0c7          	.insn	4, 0xbdb8f0c7
    80001eb8:	40a07bd7          	vsetvli	s7,zero,1034
    80001ebc:	9674                	.insn	2, 0x9674
    80001ebe:	4086                	lw	ra,64(sp)
    80001ec0:	f57d                	bnez	a0,80001eae <input_data+0x18ae>
    80001ec2:	c0d4                	sw	a3,4(s1)
    80001ec4:	88c6                	mv	a7,a7
    80001ec6:	bd84                	fsd	fs1,56(a1)
    80001ec8:	7c8d                	lui	s9,0xfffe3
    80001eca:	c101                	beqz	a0,80001eca <input_data+0x18ca>
    80001ecc:	41114e2b          	.insn	4, 0x41114e2b
    80001ed0:	40872ec7          	fmsub.s	ft9,fa4,fs0,fs0,rdn
    80001ed4:	3fd10bb7          	lui	s7,0x3fd10
    80001ed8:	eae4                	sd	s1,208(a3)
    80001eda:	833a4093          	xori	ra,s4,-1997
    80001ede:	c119                	beqz	a0,80001ee4 <input_data+0x18e4>
    80001ee0:	fefa                	sd	t5,376(sp)
    80001ee2:	40b9                	li	ra,14
    80001ee4:	c845                	beqz	s0,80001f94 <input_data+0x1994>
    80001ee6:	c106                	sw	ra,128(sp)
    80001ee8:	86f9                	srai	a3,a3,0x1e
    80001eea:	8579c02b          	.insn	4, 0x8579c02b
    80001eee:	4115                	li	sp,5
    80001ef0:	40da24e3          	.insn	4, 0x40da24e3
    80001ef4:	376d                	addiw	a4,a4,-5
    80001ef6:	c020                	sw	s0,64(s0)
    80001ef8:	8f71                	and	a4,a4,a2
    80001efa:	408e                	lw	ra,192(sp)
    80001efc:	438d                	li	t2,3
    80001efe:	3fa1                	addiw	t6,t6,-24
    80001f00:	c4a1                	beqz	s1,80001f48 <input_data+0x1948>
    80001f02:	f396410f          	.insn	4, 0xf396410f
    80001f06:	c114                	sw	a3,0(a0)
    80001f08:	c0f146f3          	.insn	4, 0xc0f146f3
    80001f0c:	ec2c                	sd	a1,88(s0)
    80001f0e:	c10d                	beqz	a0,80001f30 <input_data+0x1930>
    80001f10:	40f7a333          	.insn	4, 0x40f7a333
    80001f14:	30e2                	fld	ft1,56(sp)
    80001f16:	4119                	li	sp,6
    80001f18:	00d0                	addi	a2,sp,68
    80001f1a:	963a410f          	.insn	4, 0x963a410f
    80001f1e:	1926c07b          	.insn	4, 0x1926c07b
    80001f22:	125ac00b          	.insn	4, 0x125ac00b
    80001f26:	3fae                	fld	ft11,232(sp)
    80001f28:	5c01                	li	s8,-32
    80001f2a:	c0f9                	beqz	s1,80001ff0 <input_data+0x19f0>
    80001f2c:	c0fd5797          	auipc	a5,0xc0fd5
    80001f30:	4077085b          	.insn	4, 0x4077085b
    80001f34:	7d89                	lui	s11,0xfffe2
    80001f36:	3f4e                	fld	ft10,240(sp)
    80001f38:	c0b5                	beqz	s1,80001f9c <input_data+0x199c>
    80001f3a:	160ec023          	.insn	4, 0x160ec023
    80001f3e:	40c2                	lw	ra,16(sp)
    80001f40:	c0bcde0b          	.insn	4, 0xc0bcde0b
    80001f44:	40d26467          	.insn	4, 0x40d26467
    80001f48:	aca1                	j	800021a0 <input_data+0x1ba0>
    80001f4a:	4119                	li	sp,6
    80001f4c:	6256                	ld	tp,336(sp)
    80001f4e:	3f06                	fld	ft10,96(sp)
    80001f50:	f9f6                	sd	t4,240(sp)
    80001f52:	c0ea                	sw	s10,64(sp)
    80001f54:	2960                	fld	fs0,208(a0)
    80001f56:	4112                	lw	sp,4(sp)
    80001f58:	d649                	beqz	a2,80001ee2 <input_data+0x18e2>
    80001f5a:	01e240d3          	fadd.s	ft1,ft4,ft10,rmm
    80001f5e:	bff1                	j	80001f3a <input_data+0x193a>
    80001f60:	d834                	sw	a3,112(s0)
    80001f62:	3f88                	fld	fa0,56(a5)
    80001f64:	f1f1                	bnez	a1,80001f28 <input_data+0x1928>
    80001f66:	f297c0d3          	.insn	4, 0xf297c0d3
    80001f6a:	40e6                	lw	ra,88(sp)
    80001f6c:	8a69                	andi	a2,a2,26
    80001f6e:	c03e                	sw	a5,0(sp)
    80001f70:	7c8d                	lui	s9,0xfffe3
    80001f72:	c104                	sw	s1,0(a0)
    80001f74:	8915                	andi	a0,a0,5
    80001f76:	c105                	beqz	a0,80001f96 <input_data+0x1996>
    80001f78:	cf3a                	sw	a4,156(sp)
    80001f7a:	144040d3          	.insn	4, 0x144040d3
    80001f7e:	c0fa                	sw	t5,64(sp)
    80001f80:	8ece                	mv	t4,s3
    80001f82:	8e00c0fb          	.insn	4, 0x8e00c0fb
    80001f86:	4014                	lw	a3,0(s0)
    80001f88:	2a4e                	fld	fs4,208(sp)
    80001f8a:	3fd4                	fld	fa3,184(a5)
    80001f8c:	161a                	slli	a2,a2,0x26
    80001f8e:	4014                	lw	a3,0(s0)
    80001f90:	06f0                	addi	a2,sp,844
    80001f92:	2fee40cb          	.insn	4, 0x2fee40cb
    80001f96:	40fe                	lw	ra,220(sp)
    80001f98:	a07f 40b6 1e90 40a9 	.insn	14, 0x8ef3bd12b3cc40a91e9040b6a07f
    80001fa0:	b3cc bd12 8ef3 
    80001fa6:	4034                	lw	a3,64(s0)
    80001fa8:	20c9                	addiw	ra,ra,18
    80001faa:	7ac8bf5b          	.insn	4, 0x7ac8bf5b
    80001fae:	40d2                	lw	ra,20(sp)
    80001fb0:	f706                	sd	ra,424(sp)
    80001fb2:	4046                	.insn	2, 0x4046
    80001fb4:	ec4e                	sd	s3,24(sp)
    80001fb6:	3fd5                	addiw	t6,t6,-11
    80001fb8:	40fcca6b          	.insn	4, 0x40fcca6b
    80001fbc:	a208                	fsd	fa0,0(a2)
    80001fbe:	c0a0                	sw	s0,64(s1)
    80001fc0:	6aaa                	ld	s5,136(sp)
    80001fc2:	4109                	li	sp,2
    80001fc4:	8f8a                	mv	t6,sp
    80001fc6:	4071                	c.li	zero,28
    80001fc8:	6fac                	ld	a1,88(a5)
    80001fca:	3ee0                	fld	fs0,248(a3)
    80001fcc:	52f4                	lw	a3,100(a3)
    80001fce:	4081                	li	ra,0
    80001fd0:	4074388f          	.insn	4, 0x4074388f
    80001fd4:	07c8                	addi	a0,sp,964
    80001fd6:	030cc0b3          	div	ra,s9,a6
    80001fda:	407f 9703 c066 678a 	.insn	18, 0x410feca53fd61a2ec0b9678ac0669703407f
    80001fe2:	c0b9 1a2e 3fd6 eca5 
    80001fea:	410f 
    80001fec:	ae60                	fsd	fs0,216(a2)
    80001fee:	c102                	sw	zero,128(sp)
    80001ff0:	3dc0620b          	.insn	4, 0x3dc0620b
    80001ff4:	8835                	andi	s0,s0,13
    80001ff6:	e9ee4083          	lbu	ra,-354(t3) # 19e9e <_start-0x7ffe6162>
    80001ffa:	4119                	li	sp,6
    80001ffc:	424c                	lw	a1,4(a2)
    80001ffe:	c0df 52e5 c11e      	.insn	6, 0xc11e52e5c0df
    80002004:	40bf7a2f          	.insn	4, 0x40bf7a2f
    80002008:	2995                	addiw	s3,s3,5
    8000200a:	40b2                	lw	ra,12(sp)
    8000200c:	c0221273          	csrrw	tp,instret,tp
    80002010:	41056fbf c0321db0 	.insn	8, 0xc0321db041056fbf
    80002018:	4105b4a7          	fsd	fa6,1033(a1)
    8000201c:	38c9                	addiw	a7,a7,-14
    8000201e:	feb540d3          	.insn	4, 0xfeb540d3
    80002022:	2bb0408f          	.insn	4, 0x2bb0408f
    80002026:	23b3408f          	.insn	4, 0x23b3408f
    8000202a:	3eb5                	addiw	t4,t4,-19
    8000202c:	c9c0                	sw	s0,20(a1)
    8000202e:	c115                	beqz	a0,80002052 <input_data+0x1a52>
    80002030:	557a                	lw	a0,188(sp)
    80002032:	40aa                	lw	ra,136(sp)
    80002034:	2cd6                	fld	fs9,336(sp)
    80002036:	c118                	sw	a4,0(a0)
    80002038:	d0f0                	sw	a2,100(s1)
    8000203a:	62564107          	.insn	4, 0x62564107
    8000203e:	4068                	lw	a0,68(s0)
    80002040:	0970                	addi	a2,sp,156
    80002042:	3dc0                	fld	fs0,184(a1)
    80002044:	dc8c                	sw	a1,56(s1)
    80002046:	4010                	lw	a2,0(s0)
    80002048:	8ab1                	andi	a3,a3,12
    8000204a:	4021                	c.li	zero,8
    8000204c:	9aa2                	add	s5,s5,s0
    8000204e:	c039                	beqz	s0,80002094 <input_data+0x1a94>
    80002050:	4509                	li	a0,2
    80002052:	40d1                	li	ra,20
    80002054:	c09eda53          	.insn	4, 0xc09eda53
    80002058:	009d                	addi	ra,ra,7
    8000205a:	c0e8                	sw	a0,68(s1)
    8000205c:	3f9bb867          	.insn	4, 0x3f9bb867
    80002060:	0698                	addi	a4,sp,832
    80002062:	c0b9                	beqz	s1,800020a8 <input_data+0x1aa8>
    80002064:	973e                	add	a4,a4,a5
    80002066:	c0c2                	sw	a6,64(sp)
    80002068:	2604                	fld	fs1,8(a2)
    8000206a:	410d                	li	sp,3
    8000206c:	c116d4db          	.insn	4, 0xc116d4db
    80002070:	1609                	addi	a2,a2,-30 # c102ba0e <_end+0x4101aa0e>
    80002072:	10d6c0ab          	.insn	4, 0x10d6c0ab
    80002076:	4108                	lw	a0,0(a0)
    80002078:	0612                	slli	a2,a2,0x4
    8000207a:	4104                	lw	s1,0(a0)
    8000207c:	410885b7          	lui	a1,0x41088
    80002080:	75de                	ld	a1,496(sp)
    80002082:	7371c06f          	j	8001efb8 <_end+0xdfb8>
    80002086:	c0b0                	sw	a2,64(s1)
    80002088:	8efe                	mv	t4,t6
    8000208a:	40b0                	lw	a2,64(s1)
    8000208c:	ebd1                	bnez	a5,80002120 <input_data+0x1b20>
    8000208e:	40df e415 404b      	.insn	6, 0x404be41540df
    80002094:	c104bf6b          	.insn	4, 0xc104bf6b
    80002098:	d834                	sw	a3,112(s0)
    8000209a:	c089                	beqz	s1,8000209c <input_data+0x1a9c>
    8000209c:	a1ba                	fsd	fa4,192(sp)
    8000209e:	4020                	lw	s0,64(s0)
    800020a0:	a94c                	fsd	fa1,144(a0)
    800020a2:	3fe1                	addiw	t6,t6,-8
    800020a4:	db51                	beqz	a4,80002038 <input_data+0x1a38>
    800020a6:	3b07c06b          	.insn	4, 0x3b07c06b
    800020aa:	411d                	li	sp,7
    800020ac:	c10c896f          	jal	s2,7ffca4bc <_start-0x35b44>
    800020b0:	8fc9                	or	a5,a5,a0
    800020b2:	3f54                	fld	fa3,184(a4)
    800020b4:	9082                	jalr	ra
    800020b6:	4090                	lw	a2,0(s1)
    800020b8:	23d1                	addiw	t2,t2,20
    800020ba:	c0e5                	beqz	s1,8000219a <input_data+0x1b9a>
    800020bc:	a099                	j	80002102 <input_data+0x1b02>
    800020be:	3f52                	fld	ft10,304(sp)
    800020c0:	406ba5e3          	.insn	4, 0x406ba5e3
    800020c4:	467c                	lw	a5,76(a2)
    800020c6:	3fae                	fld	ft11,232(sp)
    800020c8:	1236                	slli	tp,tp,0x2d
    800020ca:	40fe                	lw	ra,220(sp)
    800020cc:	e864                	sd	s1,208(s0)
    800020ce:	40d0                	lw	a2,4(s1)
    800020d0:	2e84                	fld	fs1,24(a3)
    800020d2:	c00d                	beqz	s0,800020f4 <input_data+0x1af4>
    800020d4:	88c4                	.insn	2, 0x88c4
    800020d6:	512f40d3          	.insn	4, 0x512f40d3
    800020da:	c0c6                	sw	a7,64(sp)
    800020dc:	f50e                	sd	gp,168(sp)
    800020de:	ca53bf4b          	fnmsub.d	ft10,ft7,ft5,fs9,rup
    800020e2:	8c7a3f2b          	.insn	4, 0x8c7a3f2b
    800020e6:	3f5a                	fld	ft10,432(sp)
    800020e8:	f1c9                	bnez	a1,8000206a <input_data+0x1a6a>
    800020ea:	821b410f          	.insn	4, 0x821b410f
    800020ee:	67453f1b          	.insn	4, 0x67453f1b
    800020f2:	4019                	c.li	zero,6
    800020f4:	bf635643          	.insn	4, 0xbf635643
    800020f8:	a71a                	fsd	ft6,392(sp)
    800020fa:	bfa9                	j	80002054 <input_data+0x1a54>
    800020fc:	3fcb5aaf          	.insn	4, 0x3fcb5aaf
    80002100:	09ee                	slli	s3,s3,0x1b
    80002102:	bfb8                	fsd	fa4,120(a5)
    80002104:	4400                	lw	s0,8(s0)
    80002106:	c084                	sw	s1,0(s1)
    80002108:	ad65                	j	800027c0 <input_data+0x21c0>
    8000210a:	c108                	sw	a0,0(a0)
    8000210c:	8e7c                	.insn	2, 0x8e7c
    8000210e:	deabc087          	.insn	4, 0xdeabc087
    80002112:	40b0                	lw	a2,64(s1)
    80002114:	74dc                	ld	a5,168(s1)
    80002116:	c0c6                	sw	a7,64(sp)
    80002118:	5358                	lw	a4,36(a4)
    8000211a:	c0c9                	beqz	s1,8000219c <input_data+0x1b9c>
    8000211c:	2cb2                	fld	fs9,264(sp)
    8000211e:	1f5440cf          	.insn	4, 0x1f5440cf
    80002122:	40e4                	lw	s1,68(s1)
    80002124:	101f 3f24 ddba      	.insn	6, 0xddba3f24101f
    8000212a:	c10d                	beqz	a0,8000214c <input_data+0x1b4c>
    8000212c:	411d5f63          	bge	s10,a7,8000254a <input_data+0x1f4a>
    80002130:	61ed                	lui	gp,0x1b
    80002132:	c7b4beef          	jal	t4,7ff4ddac <_start-0xb2254>
    80002136:	c021                	beqz	s0,80002176 <input_data+0x1b76>
    80002138:	8299                	srli	a3,a3,0x6
    8000213a:	3f3d                	addiw	t5,t5,-17
    8000213c:	ac04                	fsd	fs1,24(s0)
    8000213e:	3ead                	addiw	t4,t4,-21
    80002140:	8fb6                	mv	t6,a3
    80002142:	410c                	lw	a1,0(a0)
    80002144:	ee42                	sd	a6,280(sp)
    80002146:	bfa8                	fsd	fa0,120(a5)
    80002148:	b0c0                	fsd	fs0,160(s1)
    8000214a:	bf10                	fsd	fa2,56(a4)
    8000214c:	411c54f3          	csrrwi	s1,0x411,24
    80002150:	7610                	ld	a2,40(a2)
    80002152:	3f3a                	fld	ft10,424(sp)
    80002154:	0e72                	slli	t3,t3,0x1c
    80002156:	c11c                	sw	a5,0(a0)
    80002158:	ae34                	fsd	fa3,88(a2)
    8000215a:	64cb410f          	.insn	4, 0x64cb410f
    8000215e:	6a6e4107          	.insn	4, 0x6a6e4107
    80002162:	bfdc                	fsd	fa5,184(a5)
    80002164:	3ad4                	fld	fa3,176(a3)
    80002166:	581540c3          	fmadd.s	ft1,fa0,ft1,fa1,rmm
    8000216a:	3ef8                	fld	fa4,248(a3)
    8000216c:	590c                	lw	a1,48(a0)
    8000216e:	d688c0c7          	.insn	4, 0xd688c0c7
    80002172:	411d                	li	sp,7
    80002174:	098d                	addi	s3,s3,3
    80002176:	be51                	j	80001d0a <input_data+0x170a>
    80002178:	825a                	mv	tp,s6
    8000217a:	40d9                	li	ra,22
    8000217c:	0939                	addi	s2,s2,14 # 1000e <_start-0x7ffefff2>
    8000217e:	40fd                	li	ra,31
    80002180:	0a96                	slli	s5,s5,0x5
    80002182:	c11d                	beqz	a0,800021a8 <input_data+0x1ba8>
    80002184:	9d5a                	add	s10,s10,s6
    80002186:	c048                	sw	a0,4(s0)
    80002188:	40cac5b7          	lui	a1,0x40cac
    8000218c:	0fd0                	addi	a2,sp,980
    8000218e:	78813e43          	fmadd.s	ft8,ft2,fs0,fa5,rup
    80002192:	409d                	li	ra,7
    80002194:	7c78                	ld	a4,248(s0)
    80002196:	3fdd                	addiw	t6,t6,-9
    80002198:	e01a                	sd	t1,0(sp)
    8000219a:	3c82                	fld	fs9,32(sp)
    8000219c:	c0c97553          	.insn	4, 0xc0c97553
    800021a0:	e506                	sd	ra,136(sp)
    800021a2:	4085                	li	ra,1
    800021a4:	c02bce57          	.insn	4, 0xc02bce57
    800021a8:	6562                	ld	a0,24(sp)
    800021aa:	3fea                	fld	ft11,184(sp)
    800021ac:	e216                	sd	t0,256(sp)
    800021ae:	4101                	li	sp,0
    800021b0:	e47e                	sd	t6,8(sp)
    800021b2:	40fd                	li	ra,31
    800021b4:	4de0                	lw	s0,92(a1)
    800021b6:	e69740bb          	.insn	4, 0xe69740bb
    800021ba:	3f16                	fld	ft10,352(sp)
    800021bc:	410be747          	fmsub.s	fa4,fs7,fa6,fs0,unknown
    800021c0:	3511                	addiw	a0,a0,-28
    800021c2:	bf19                	j	800020d8 <input_data+0x1ad8>
    800021c4:	b795                	j	80002128 <input_data+0x1b28>
    800021c6:	40b5                	li	ra,13
    800021c8:	39a8                	fld	fa0,112(a1)
    800021ca:	408e                	lw	ra,192(sp)
    800021cc:	b41c                	fsd	fa5,40(s0)
    800021ce:	4072                	.insn	2, 0x4072
    800021d0:	45d8                	lw	a4,12(a1)
    800021d2:	c0b0                	sw	a2,64(s1)
    800021d4:	679d                	lui	a5,0x7
    800021d6:	e8c44077          	.insn	4, 0xe8c44077
    800021da:	3f01                	addiw	t5,t5,-32
    800021dc:	6ac0                	ld	s0,144(a3)
    800021de:	40ac                	lw	a1,64(s1)
    800021e0:	23ff 4098 7c20 c0b8 	.insn	14, 0x13b5c07b3997c0b87c20409823ff
    800021e8:	3997 c07b 13b5 
    800021ee:	4111                	li	sp,4
    800021f0:	c016543b          	.insn	4, 0xc016543b
    800021f4:	e111                	bnez	a0,800021f8 <input_data+0x1bf8>
    800021f6:	c054                	sw	a3,4(s0)
    800021f8:	c08c28eb          	.insn	4, 0xc08c28eb
    800021fc:	eac4                	sd	s1,144(a3)
    800021fe:	40cc                	lw	a1,4(s1)
    80002200:	40dc07fb          	.insn	4, 0x40dc07fb
    80002204:	afea                	fsd	fs10,472(sp)
    80002206:	a4e84117          	auipc	sp,0xa4e84
    8000220a:	4048                	lw	a0,4(s0)
    8000220c:	408e8853          	.insn	4, 0x408e8853
    80002210:	05d1                	addi	a1,a1,20 # 40cac014 <_start-0x3f353fec>
    80002212:	bfd5                	j	80002206 <input_data+0x1c06>
    80002214:	4021c7f3          	.insn	4, 0x4021c7f3
    80002218:	325d                	addiw	tp,tp,-9 # fffffffffffffff7 <_end+0xffffffff7ffeeff7>
    8000221a:	c0b6                	sw	a3,64(sp)
    8000221c:	02c9                	addi	t0,t0,18 # fffffffffffed012 <_end+0xffffffff7ffdc012>
    8000221e:	c070                	sw	a2,68(s0)
    80002220:	31a5                	addiw	gp,gp,-23 # 1afe9 <_start-0x7ffe5017>
    80002222:	c065                	beqz	s0,80002302 <input_data+0x1d02>
    80002224:	7add                	lui	s5,0xffff7
    80002226:	4072                	.insn	2, 0x4072
    80002228:	40561eef          	jal	t4,80063e2c <_end+0x52e2c>
    8000222c:	53cc                	lw	a1,36(a5)
    8000222e:	411c                	lw	a5,0(a0)
    80002230:	c6a4                	sw	s1,72(a3)
    80002232:	c05e                	sw	s7,0(sp)
    80002234:	9cc6                	add	s9,s9,a7
    80002236:	4116                	lw	sp,68(sp)
    80002238:	bf9e0cb7          	lui	s9,0xbf9e0
    8000223c:	9920                	.insn	2, 0x9920
    8000223e:	c0a4                	sw	s1,64(s1)
    80002240:	40f15797          	auipc	a5,0x40f15
    80002244:	3fbdd76f          	jal	a4,800dfe3e <_end+0xcee3e>
    80002248:	2a49                	addiw	s4,s4,18
    8000224a:	c01d                	beqz	s0,80002270 <input_data+0x1c70>
    8000224c:	c0a3e7f3          	csrrsi	a5,hpmcounter10,7
    80002250:	035c                	addi	a5,sp,388
    80002252:	411c                	lw	a5,0(a0)
    80002254:	b731                	j	80002160 <input_data+0x1b60>
    80002256:	c032                	sw	a2,0(sp)
    80002258:	82e0                	.insn	2, 0x82e0
    8000225a:	c115                	beqz	a0,8000227e <input_data+0x1c7e>
    8000225c:	dc94                	sw	a3,56(s1)
    8000225e:	c0e9                	beqz	s1,80002320 <input_data+0x1d20>
    80002260:	3f91481b          	.insn	4, 0x3f91481b
    80002264:	3ffe2763          	.insn	4, 0x3ffe2763
    80002268:	91b1                	srli	a1,a1,0x2c
    8000226a:	4111                	li	sp,4
    8000226c:	c0f623db          	.insn	4, 0xc0f623db
    80002270:	ba0c                	fsd	fa1,48(a2)
    80002272:	df8dc113          	xori	sp,s11,-520
    80002276:	c111                	beqz	a0,8000227a <input_data+0x1c7a>
    80002278:	2eae                	fld	ft9,200(sp)
    8000227a:	deb1bf07          	fld	ft10,-533(gp)
    8000227e:	c0ad                	beqz	s1,800022e0 <input_data+0x1ce0>
    80002280:	3fa21ce7          	.insn	4, 0x3fa21ce7
    80002284:	0f36                	slli	t5,t5,0xd
    80002286:	c10e                	sw	gp,128(sp)
    80002288:	71d0                	ld	a2,160(a1)
    8000228a:	090d40c7          	fmsub.s	ft1,fs10,fa6,ft1,rmm
    8000228e:	1fd6c103          	lbu	sp,509(a3)
    80002292:	30c2c0a7          	.insn	4, 0x30c2c0a7
    80002296:	be60                	fsd	fs0,248(a2)
    80002298:	409dc9cb          	fnmsub.s	fs3,fs11,fs1,fs0,rmm
    8000229c:	9b7c                	.insn	2, 0x9b7c
    8000229e:	4035                	c.li	zero,13
    800022a0:	40a4234b          	fnmsub.s	ft6,fs0,fa0,fs0,rdn
    800022a4:	d82c                	sw	a1,112(s0)
    800022a6:	c10c                	sw	a1,0(a0)
    800022a8:	058c                	addi	a1,sp,704
    800022aa:	411d                	li	sp,7
    800022ac:	7868                	ld	a0,240(s0)
    800022ae:	a1eec003          	lbu	zero,-1506(t4)
    800022b2:	c0ca                	sw	s2,64(sp)
    800022b4:	c1119ac7          	fmsub.s	fs5,ft3,fa7,fs8,rtz
    800022b8:	c519                	beqz	a0,800022c6 <input_data+0x1cc6>
    800022ba:	bfa4                	fsd	fs1,120(a5)
    800022bc:	ce79                	beqz	a2,8000239a <input_data+0x1d9a>
    800022be:	bf56                	fsd	fs5,440(sp)
    800022c0:	46e9                	li	a3,26
    800022c2:	408d                	li	ra,3
    800022c4:	fba0                	sd	s0,112(a5)
    800022c6:	400e                	.insn	2, 0x400e
    800022c8:	06c2                	slli	a3,a3,0x10
    800022ca:	c082                	sw	zero,64(sp)
    800022cc:	1cae                	slli	s9,s9,0x2b
    800022ce:	c11a                	sw	t1,128(sp)
    800022d0:	26fa                	fld	fa3,408(sp)
    800022d2:	3f59                	addiw	t5,t5,-10
    800022d4:	bf0bae47          	.insn	4, 0xbf0bae47
    800022d8:	3f28bb1b          	.insn	4, 0x3f28bb1b
    800022dc:	d994                	sw	a3,48(a1)
    800022de:	c0a0                	sw	s0,64(s1)
    800022e0:	c0a7927b          	.insn	4, 0xc0a7927b
    800022e4:	519c                	lw	a5,32(a1)
    800022e6:	4014                	lw	a3,0(s0)
    800022e8:	ea79                	bnez	a2,800023be <input_data+0x1dbe>
    800022ea:	400a                	.insn	2, 0x400a
    800022ec:	e6ae                	sd	a1,328(sp)
    800022ee:	5acfc113          	xori	sp,t6,1452
    800022f2:	ef4ac10b          	.insn	4, 0xef4ac10b
    800022f6:	7bc8bf5b          	.insn	4, 0x7bc8bf5b
    800022fa:	f5c74073          	.insn	4, 0xf5c74073
    800022fe:	9e8a40a3          	.insn	4, 0x9e8a40a3
    80002302:	4108                	lw	a0,0(a0)
    80002304:	936c                	.insn	2, 0x936c
    80002306:	409f d91f c04b      	.insn	6, 0xc04bd91f409f
    8000230c:	3f2b0d0f          	.insn	4, 0x3f2b0d0f
    80002310:	78d1                	lui	a7,0xffff4
    80002312:	c066                	sw	s9,0(sp)
    80002314:	c0a6a2d3          	.insn	4, 0xc0a6a2d3
    80002318:	1759                	addi	a4,a4,-10
    8000231a:	4045                	c.li	zero,17
    8000231c:	2075                	.insn	2, 0x2075
    8000231e:	c0d4                	sw	a3,4(s1)
    80002320:	4978                	lw	a4,84(a0)
    80002322:	56fb410f          	.insn	4, 0x56fb410f
    80002326:	317d4113          	xori	sp,s10,791
    8000232a:	409a                	lw	ra,132(sp)
    8000232c:	a5c2                	fsd	fa6,200(sp)
    8000232e:	f9f0bf2f          	.insn	4, 0xf9f0bf2f
    80002332:	400d                	c.li	zero,3
    80002334:	4c01                	li	s8,0
    80002336:	c104                	sw	s1,0(a0)
    80002338:	32c2                	fld	ft5,48(sp)
    8000233a:	c086                	sw	ra,64(sp)
    8000233c:	83c4                	.insn	2, 0x83c4
    8000233e:	a7d2c107          	.insn	4, 0xa7d2c107
    80002342:	4f40c093          	xori	ra,ra,1268
    80002346:	3f1f fbad 4040      	.insn	6, 0x4040fbad3f1f
    8000234c:	411a6157          	.insn	4, 0x411a6157
    80002350:	e808                	sd	a0,16(s0)
    80002352:	bf22                	fsd	fs0,440(sp)
    80002354:	d52e                	sw	a1,168(sp)
    80002356:	4098                	lw	a4,0(s1)
    80002358:	cf44                	sw	s1,28(a4)
    8000235a:	40ee                	lw	ra,216(sp)
    8000235c:	6abe                	ld	s5,456(sp)
    8000235e:	4078                	lw	a4,68(s0)
    80002360:	6d9c                	ld	a5,24(a1)
    80002362:	bcee                	fsd	fs11,120(sp)
    80002364:	c0856007          	.insn	4, 0xc0856007
    80002368:	c302                	sw	zero,132(sp)
    8000236a:	ecb2411b          	.insn	4, 0xecb2411b
    8000236e:	c10e                	sw	gp,128(sp)
    80002370:	57e9                	li	a5,-6
    80002372:	4112                	lw	sp,4(sp)
    80002374:	1b1e                	slli	s6,s6,0x27
    80002376:	39fac11b          	.insn	4, 0x39fac11b
    8000237a:	408c                	lw	a1,0(s1)
    8000237c:	9258                	.insn	2, 0x9258
    8000237e:	c08a                	sw	sp,64(sp)
    80002380:	f2a0                	sd	s0,96(a3)
    80002382:	4111                	li	sp,4
    80002384:	40a4bff7          	.insn	4, 0x40a4bff7
    80002388:	419e                	lw	gp,196(sp)
    8000238a:	a1273f97          	auipc	t6,0xa1273
    8000238e:	c071                	beqz	s0,80002452 <input_data+0x1e52>
    80002390:	c811                	beqz	s0,800023a4 <input_data+0x1da4>
    80002392:	bead                	j	80001f0c <input_data+0x190c>
    80002394:	8a0d                	andi	a2,a2,3
    80002396:	407e                	.insn	2, 0x407e
    80002398:	4fb9                	li	t6,14
    8000239a:	c0a0                	sw	s0,64(s1)
    8000239c:	6825                	lui	a6,0x9
    8000239e:	2cd640d3          	.insn	4, 0x2cd640d3
    800023a2:	40a8                	lw	a0,64(s1)
    800023a4:	3feb07af          	.insn	4, 0x3feb07af
    800023a8:	82de                	mv	t0,s7
    800023aa:	c0df 066c 4065      	.insn	6, 0x4065066cc0df
    800023b0:	88ca                	mv	a7,s2
    800023b2:	599b4057          	.insn	4, 0x599b4057
    800023b6:	4085                	li	ra,1
    800023b8:	bb54                	fsd	fa3,176(a4)
    800023ba:	c0d8                	sw	a4,4(s1)
    800023bc:	c3a8                	sw	a0,64(a5)
    800023be:	c109                	beqz	a0,800023c0 <input_data+0x1dc0>
    800023c0:	a106                	fsd	ft1,128(sp)
    800023c2:	c0b5                	beqz	s1,80002426 <input_data+0x1e26>
    800023c4:	f084                	sd	s1,32(s1)
    800023c6:	c072                	sw	t3,0(sp)
    800023c8:	c1df 40f4 1fd8      	.insn	6, 0x1fd840f4c1df
    800023ce:	c0c8                	sw	a0,4(s1)
    800023d0:	d1ce                	sw	s3,224(sp)
    800023d2:	40d2                	lw	ra,20(sp)
    800023d4:	5bb1                	li	s7,-20
    800023d6:	22abc0d3          	.insn	4, 0x22abc0d3
    800023da:	3bcf4113          	xori	sp,t5,956
    800023de:	40cd                	li	ra,19
    800023e0:	2936                	fld	fs2,328(sp)
    800023e2:	c101                	beqz	a0,800023e2 <input_data+0x1de2>
    800023e4:	d83c                	sw	a5,112(s0)
    800023e6:	40cd                	li	ra,19
    800023e8:	0e84                	addi	s1,sp,848
    800023ea:	4026                	.insn	2, 0x4026
    800023ec:	c0e8343b          	.insn	4, 0xc0e8343b
    800023f0:	3374                	fld	fa3,224(a4)
    800023f2:	4081                	li	ra,0
    800023f4:	bfe5d157          	vfnmsac.vf	v2,fa1,v30
    800023f8:	249e                	fld	fs1,448(sp)
    800023fa:	3044c097          	auipc	ra,0x3044c
    800023fe:	c0fc                	sw	a5,68(s1)
    80002400:	c92e                	sw	a1,144(sp)
    80002402:	3fdd                	addiw	t6,t6,-9 # 21275381 <_start-0x5ed8ac7f>
    80002404:	c0bd66c3          	fmadd.s	fa3,fs10,fa1,fs8,unknown
    80002408:	3eedb35b          	.insn	4, 0x3eedb35b
    8000240c:	81c8                	.insn	2, 0x81c8
    8000240e:	c115                	beqz	a0,80002432 <input_data+0x1e32>
    80002410:	6524                	ld	s1,72(a0)
    80002412:	410e                	lw	sp,192(sp)
    80002414:	018e                	slli	gp,gp,0x3
    80002416:	4094                	lw	a3,0(s1)
    80002418:	cb6c                	sw	a1,84(a4)
    8000241a:	bf38                	fsd	fa4,120(a4)
    8000241c:	3f986003          	lwu	zero,1017(a6) # 93f9 <_start-0x7fff6c07>
    80002420:	42c0                	lw	s0,4(a3)
    80002422:	c061                	beqz	s0,800024e2 <input_data+0x1ee2>
    80002424:	c1190663          	beq	s2,a7,80001830 <input_data+0x1230>
    80002428:	88a0                	.insn	2, 0x88a0
    8000242a:	11d3c013          	xori	zero,t2,285
    8000242e:	40b8                	lw	a4,64(s1)
    80002430:	1902                	slli	s2,s2,0x20
    80002432:	dff0c107          	.insn	4, 0xdff0c107
    80002436:	78ffc0bf 9c1c3eaf 	.insn	8, 0x9c1c3eaf78ffc0bf
    8000243e:	4109                	li	sp,2
    80002440:	eb2d                	bnez	a4,800024b2 <input_data+0x1eb2>
    80002442:	3da7408f          	.insn	4, 0x3da7408f
    80002446:	c090                	sw	a2,0(s1)
    80002448:	f725                	bnez	a4,800023b0 <input_data+0x1db0>
    8000244a:	d2d8c0fb          	.insn	4, 0xd2d8c0fb
    8000244e:	4088                	lw	a0,0(s1)
    80002450:	4129                	li	sp,10
    80002452:	4086                	lw	ra,64(sp)
    80002454:	19bd                	addi	s3,s3,-17
    80002456:	403c                	lw	a5,64(s0)
    80002458:	3f2410c7          	.insn	4, 0x3f2410c7
    8000245c:	437a                	lw	t1,156(sp)
    8000245e:	1c82408f          	.insn	4, 0x1c82408f
    80002462:	4f7f4057          	vmsbc.vx	v0,v23,t5
    80002466:	3fe2                	fld	ft11,56(sp)
    80002468:	1d50                	addi	a2,sp,692
    8000246a:	3fe5                	addiw	t6,t6,-7
    8000246c:	9419                	srai	s0,s0,0x26
    8000246e:	4106                	lw	sp,64(sp)
    80002470:	6764                	ld	s1,200(a4)
    80002472:	30c6c0f7          	.insn	4, 0x30c6c0f7
    80002476:	4014                	lw	a3,0(s0)
    80002478:	d302                	sw	zero,164(sp)
    8000247a:	143e4087          	.insn	4, 0x143e4087
    8000247e:	40e4                	lw	s1,68(s1)
    80002480:	6432                	ld	s0,264(sp)
    80002482:	2f9bc0a7          	.insn	4, 0x2f9bc0a7
    80002486:	410c                	lw	a1,0(a0)
    80002488:	cb32                	sw	a2,148(sp)
    8000248a:	3ee6                	fld	ft9,120(sp)
    8000248c:	3535                	addiw	a0,a0,-19
    8000248e:	3598c083          	lbu	ra,857(a7) # ffffffffffff4359 <_end+0xffffffff7ffe3359>
    80002492:	c0f9                	beqz	s1,80002558 <input_data+0x1f58>
    80002494:	083a                	slli	a6,a6,0xe
    80002496:	3fae                	fld	ft11,232(sp)
    80002498:	2014                	fld	fa3,0(s0)
    8000249a:	4089                	li	ra,2
    8000249c:	8544                	.insn	2, 0x8544
    8000249e:	c04d                	beqz	s0,80002540 <input_data+0x1f40>
    800024a0:	c609                	beqz	a2,800024aa <input_data+0x1eaa>
    800024a2:	4038                	lw	a4,64(s0)
    800024a4:	1f2a                	slli	t5,t5,0x2a
    800024a6:	406e                	.insn	2, 0x406e
    800024a8:	40e0c773          	.insn	4, 0x40e0c773
    800024ac:	b7e5                	j	80002494 <input_data+0x1e94>
    800024ae:	9373c04f          	fnmadd.d	ft0,ft7,fs7,fs2,rmm
    800024b2:	40d4                	lw	a3,4(s1)
    800024b4:	40ee7cdb          	.insn	4, 0x40ee7cdb
    800024b8:	fa66                	sd	s9,304(sp)
    800024ba:	4065                	c.li	zero,25
    800024bc:	404b296f          	jal	s2,800b48c0 <_end+0xa38c0>
    800024c0:	40b4e473          	csrrsi	s0,0x40b,9
    800024c4:	5836                	lw	a6,108(sp)
    800024c6:	c03e                	sw	a5,0(sp)
    800024c8:	abe9                	j	80002aa2 <input_data+0x24a2>
    800024ca:	1e6dc0d7          	vmax.vx	v1,v6,s11
    800024ce:	3f2bbf0b          	.insn	4, 0x3f2bbf0b
    800024d2:	40c1                	li	ra,16
    800024d4:	c9e2                	sw	s8,208(sp)
    800024d6:	be7e                	fsd	ft11,312(sp)
    800024d8:	c0506f3f 40577cdd 	.insn	8, 0x40577cddc0506f3f
    800024e0:	e86a                	sd	s10,16(sp)
    800024e2:	c09e                	sw	t2,64(sp)
    800024e4:	cd92                	sw	tp,216(sp)
    800024e6:	404e                	.insn	2, 0x404e
    800024e8:	7a4e                	ld	s4,240(sp)
    800024ea:	c0f4                	sw	a3,68(s1)
    800024ec:	26e2                	fld	fa3,24(sp)
    800024ee:	36f0c103          	lbu	sp,879(ra) # b044e769 <_end+0x3043d769>
    800024f2:	c070                	sw	a2,68(s0)
    800024f4:	1fc9                	addi	t6,t6,-14
    800024f6:	c09c                	sw	a5,0(s1)
    800024f8:	a9a4                	fsd	fs1,80(a1)
    800024fa:	c05c                	sw	a5,4(s0)
    800024fc:	dcf2                	sw	t3,120(sp)
    800024fe:	40c6                	lw	ra,80(sp)
    80002500:	40c0b9cb          	fnmsub.s	fs3,ft1,fa2,fs0,rup
    80002504:	336e                	fld	ft6,248(sp)
    80002506:	dc37c0ef          	jal	7ff7f2c8 <_start-0x80d38>
    8000250a:	c101                	beqz	a0,8000250a <input_data+0x1f0a>
    8000250c:	41157b5b          	.insn	4, 0x41157b5b
    80002510:	e59c                	sd	a5,8(a1)
    80002512:	c10e                	sw	gp,128(sp)
    80002514:	db0c                	sw	a1,48(a4)
    80002516:	3bde4107          	.insn	4, 0x3bde4107
    8000251a:	c02d                	beqz	s0,8000257c <input_data+0x1f7c>
    8000251c:	ba82                	fsd	ft0,368(sp)
    8000251e:	c0ed                	beqz	s1,80002600 <input_data+0x2000>
    80002520:	9f75                	.insn	2, 0x9f75
    80002522:	42b7c0d7          	.insn	4, 0x42b7c0d7
    80002526:	40d0                	lw	a2,4(s1)
    80002528:	c7ae                	sw	a1,204(sp)
    8000252a:	c0a8                	sw	a0,64(s1)
    8000252c:	238e                	fld	ft7,192(sp)
    8000252e:	17074033          	.insn	4, 0x17074033
    80002532:	40d2                	lw	ra,20(sp)
    80002534:	40d15bab          	.insn	4, 0x40d15bab
    80002538:	a55d                	j	80002bde <input_data+0x25de>
    8000253a:	08afc037          	lui	zero,0x8afc
    8000253e:	40a6                	lw	ra,72(sp)
    80002540:	40b2e853          	.insn	4, 0x40b2e853
    80002544:	c076d26b          	.insn	4, 0xc076d26b
    80002548:	410af32b          	.insn	4, 0x410af32b
    8000254c:	7ed2                	ld	t4,304(sp)
    8000254e:	4101                	li	sp,0
    80002550:	aa0d                	j	80002682 <input_data+0x2082>
    80002552:	4050                	lw	a2,4(s0)
    80002554:	eecc                	sd	a1,152(a3)
    80002556:	c05e                	sw	s7,0(sp)
    80002558:	84d0                	.insn	2, 0x84d0
    8000255a:	c102                	sw	zero,128(sp)
    8000255c:	c1129547          	fmsub.s	fa0,ft5,fa7,fs8,rtz
    80002560:	f9e2                	sd	s8,240(sp)
    80002562:	c109                	beqz	a0,80002564 <input_data+0x1f64>
    80002564:	0905                	addi	s2,s2,1
    80002566:	4088                	lw	a0,0(s1)
    80002568:	bbbc                	fsd	fa5,112(a5)
    8000256a:	4100                	lw	s0,0(a0)
    8000256c:	035c                	addi	a5,sp,388
    8000256e:	c112                	sw	tp,128(sp)
    80002570:	1cb2                	slli	s9,s9,0x2c
    80002572:	9e9240cf          	.insn	4, 0x9e9240cf
    80002576:	92fbc10b          	.insn	4, 0x92fbc10b
    8000257a:	c025                	beqz	s0,800025da <input_data+0x1fda>
    8000257c:	c2c6                	sw	a7,68(sp)
    8000257e:	bf48                	fsd	fa0,184(a4)
    80002580:	3ff0c53b          	.insn	4, 0x3ff0c53b
    80002584:	463d                	li	a2,15
    80002586:	3f79                	addiw	t5,t5,-2
    80002588:	5652                	lw	a2,52(sp)
    8000258a:	c0fa                	sw	t5,64(sp)
    8000258c:	c09c54e7          	.insn	4, 0xc09c54e7
    80002590:	be98255b          	.insn	4, 0xbe98255b
    80002594:	c0eafb03          	.insn	4, 0xc0eafb03
    80002598:	df6a                	sw	s10,188(sp)
    8000259a:	c111                	beqz	a0,8000259e <input_data+0x1f9e>
    8000259c:	6e9c                	ld	a5,24(a3)
    8000259e:	426cc10f          	.insn	4, 0x426cc10f
    800025a2:	40d2                	lw	ra,20(sp)
    800025a4:	6ed2                	ld	t4,272(sp)
    800025a6:	40ca                	lw	ra,144(sp)
    800025a8:	312c                	fld	fa1,96(a0)
    800025aa:	c11a                	sw	t1,128(sp)
    800025ac:	ceb1                	beqz	a3,80002608 <input_data+0x2008>
    800025ae:	c11a                	sw	t1,128(sp)
    800025b0:	765e                	ld	a2,496(sp)
    800025b2:	40ca                	lw	ra,144(sp)
    800025b4:	15e8                	addi	a0,sp,748
    800025b6:	57023dcf          	.insn	4, 0x57023dcf
    800025ba:	c0e2                	sw	s8,64(sp)
    800025bc:	a359                	j	80002b42 <input_data+0x2542>
    800025be:	40e2                	lw	ra,24(sp)
    800025c0:	0fdc                	addi	a5,sp,980
    800025c2:	c0fe                	sw	t6,64(sp)
    800025c4:	c0f925b7          	lui	a1,0xc0f92
    800025c8:	24ff 4018 25ca 40d7 	.insn	14, 0x63a640c33e6a40d725ca401824ff
    800025d0:	3e6a 40c3 63a6 
    800025d6:	bfd6                	fsd	fs5,504(sp)
    800025d8:	9099                	srli	s1,s1,0x26
    800025da:	c0ae                	sw	a1,64(sp)
    800025dc:	bd98                	fsd	fa4,56(a1)
    800025de:	4008                	lw	a0,0(s0)
    800025e0:	c1fd                	beqz	a1,800026c6 <input_data+0x20c6>
    800025e2:	3ba140af          	.insn	4, 0x3ba140af
    800025e6:	224f408f          	.insn	4, 0x224f408f
    800025ea:	bf0e                	fsd	ft3,440(sp)
    800025ec:	e41d                	bnez	s0,8000261a <input_data+0x201a>
    800025ee:	bfe1                	j	800025c6 <input_data+0x1fc6>
    800025f0:	eb4a                	sd	s2,400(sp)
    800025f2:	c0f6                	sw	t4,64(sp)
    800025f4:	d5ed                	beqz	a1,800025de <input_data+0x1fde>
    800025f6:	1eb0bf57          	.insn	4, 0x1eb0bf57
    800025fa:	4040                	lw	s0,4(s0)
    800025fc:	10e9                	addi	ra,ra,-6
    800025fe:	c044                	sw	s1,4(s0)
    80002600:	10f1                	addi	ra,ra,-4
    80002602:	bf88                	fsd	fa0,56(a5)
    80002604:	4048dacf          	fnmadd.s	fs5,fa7,ft4,fs0,unknown
    80002608:	c104406b          	.insn	4, 0xc104406b
    8000260c:	408d00cb          	fnmsub.s	ft1,fs10,fs0,fs0,rne
    80002610:	695e                	ld	s2,464(sp)
    80002612:	c078                	sw	a4,68(s0)
    80002614:	a33e                	fsd	fa5,384(sp)
    80002616:	49bfc10b          	.insn	4, 0x49bfc10b
    8000261a:	dc553e8b          	.insn	4, 0xdc553e8b
    8000261e:	4118                	lw	a4,0(a0)
    80002620:	db21                	beqz	a4,80002570 <input_data+0x1f70>
    80002622:	408c                	lw	a1,0(s1)
    80002624:	59b8                	lw	a4,112(a1)
    80002626:	4021                	c.li	zero,8
    80002628:	b068                	fsd	fa0,224(s0)
    8000262a:	c042                	sw	a6,0(sp)
    8000262c:	6bb5                	lui	s7,0xd
    8000262e:	4016                	.insn	2, 0x4016
    80002630:	35ad                	addiw	a1,a1,-21 # ffffffffc0f91feb <_end+0xffffffff40f80feb>
    80002632:	c06a                	sw	s10,0(sp)
    80002634:	6671                	lui	a2,0x1c
    80002636:	c0fa                	sw	t5,64(sp)
    80002638:	76cd                	lui	a3,0xffff3
    8000263a:	3edd                	addiw	t4,t4,-9
    8000263c:	3e66                	fld	ft8,120(sp)
    8000263e:	4082                	lw	ra,0(sp)
    80002640:	69d9                	lui	s3,0x16
    80002642:	c094                	sw	a3,0(s1)
    80002644:	9514                	.insn	2, 0x9514
    80002646:	bffd                	j	80002644 <input_data+0x2044>
    80002648:	c0e3d18f          	.insn	4, 0xc0e3d18f
    8000264c:	41082b43          	fmadd.s	fs6,fa6,fa6,fs0,rdn
    80002650:	197e                	slli	s2,s2,0x3f
    80002652:	c062                	sw	s8,0(sp)
    80002654:	dab2                	sw	a2,116(sp)
    80002656:	c0b6                	sw	a3,64(sp)
    80002658:	8131                	srli	a0,a0,0xc
    8000265a:	4102                	lw	sp,0(sp)
    8000265c:	a155                	j	80002b00 <input_data+0x2500>
    8000265e:	bf29                	j	80002578 <input_data+0x1f78>
    80002660:	3f877ebb          	.insn	4, 0x3f877ebb
    80002664:	75b4                	ld	a3,104(a1)
    80002666:	40bc                	lw	a5,64(s1)
    80002668:	40c67a07          	.insn	4, 0x40c67a07
    8000266c:	2568                	fld	fa0,200(a0)
    8000266e:	61ccc06f          	j	800cec8a <_end+0xbdc8a>
    80002672:	8527407b          	.insn	4, 0x8527407b
    80002676:	c112                	sw	tp,128(sp)
    80002678:	c06e924f          	fnmadd.s	ft4,ft9,ft6,fs8,rtz
    8000267c:	9e80                	.insn	2, 0x9e80
    8000267e:	c066                	sw	s9,0(sp)
    80002680:	c0c02b67          	.insn	4, 0xc0c02b67
    80002684:	f859                	bnez	s0,8000261a <input_data+0x201a>
    80002686:	3f46                	fld	ft10,112(sp)
    80002688:	6059                	c.lui	zero,0x16
    8000268a:	40ca                	lw	ra,144(sp)
    8000268c:	fcc6                	sd	a7,120(sp)
    8000268e:	c2d2c03b          	.insn	4, 0xc2d2c03b
    80002692:	c044                	sw	s1,4(s0)
    80002694:	4018                	lw	a4,0(s0)
    80002696:	4070                	lw	a2,68(s0)
    80002698:	c07f3ea3          	sd	t2,-995(t5)
    8000269c:	f1d2                	sd	s4,224(sp)
    8000269e:	c0d8                	sw	a4,4(s1)
    800026a0:	c111918f          	.insn	4, 0xc111918f
    800026a4:	a3e4                	fsd	fs1,192(a5)
    800026a6:	c06d                	beqz	s0,80002788 <input_data+0x2188>
    800026a8:	fd52                	sd	s4,184(sp)
    800026aa:	40ae                	lw	ra,200(sp)
    800026ac:	a98d                	j	80002b1e <input_data+0x251e>
    800026ae:	c0d4                	sw	a3,4(s1)
    800026b0:	886e                	mv	a6,s11
    800026b2:	4062                	.insn	2, 0x4062
    800026b4:	5a4d                	li	s4,-13
    800026b6:	40ed                	li	ra,27
    800026b8:	c07ffd33          	.insn	4, 0xc07ffd33
    800026bc:	4856                	lw	a6,84(sp)
    800026be:	40e6                	lw	ra,88(sp)
    800026c0:	c05d97af          	.insn	4, 0xc05d97af
    800026c4:	130a                	slli	t1,t1,0x22
    800026c6:	410c                	lw	a1,0(a0)
    800026c8:	c11d8613          	addi	a2,s11,-1007 # fffffffffffe1c11 <_end+0xffffffff7ffd0c11>
    800026cc:	35b9                	addiw	a1,a1,-18
    800026ce:	bd69                	j	80002568 <input_data+0x1f68>
    800026d0:	dead                	beqz	a3,8000264a <input_data+0x204a>
    800026d2:	4025                	c.li	zero,9
    800026d4:	c505                	beqz	a0,800026fc <input_data+0x20fc>
    800026d6:	86dbc04f          	.insn	4, 0x86dbc04f
    800026da:	c02d                	beqz	s0,8000273c <input_data+0x213c>
    800026dc:	fc1a                	sd	t1,56(sp)
    800026de:	4114c0af          	.insn	4, 0x4114c0af
    800026e2:	d58040c7          	.insn	4, 0xd58040c7
    800026e6:	40ea                	lw	ra,152(sp)
    800026e8:	40903507          	fld	fa0,1033(zero) # 409 <_start-0x7ffffbf7>
    800026ec:	8e75                	and	a2,a2,a3
    800026ee:	c058                	sw	a4,4(s0)
    800026f0:	c04a6523          	.insn	4, 0xc04a6523
    800026f4:	eca2                	sd	s0,88(sp)
    800026f6:	4115                	li	sp,5
    800026f8:	4006                	.insn	2, 0x4006
    800026fa:	4106                	lw	sp,64(sp)
    800026fc:	5e74                	lw	a3,124(a2)
    800026fe:	4009                	c.li	zero,2
    80002700:	b175                	j	800023ac <input_data+0x1dac>
    80002702:	4084                	lw	s1,0(s1)
    80002704:	c0be02eb          	.insn	4, 0xc0be02eb
    80002708:	e7ff c00f e0fe 410f 	.insn	22, 0xec523fb4faf8c02e1e584109c7f5410fe0fec00fe7ff
    80002710:	c7f5 4109 1e58 c02e 
    80002718:	faf8 3fb4 ec52 
    8000271e:	c115                	beqz	a0,80002742 <input_data+0x2142>
    80002720:	c0f74b47          	fmsub.s	fs6,fa4,fa5,fs8,rmm
    80002724:	dff8                	sw	a4,124(a5)
    80002726:	bfaa                	fsd	fa0,504(sp)
    80002728:	943e                	add	s0,s0,a5
    8000272a:	40dc                	lw	a5,4(s1)
    8000272c:	6e9e                	ld	t4,448(sp)
    8000272e:	c0b1                	beqz	s1,80002772 <input_data+0x2172>
    80002730:	74b4                	ld	a3,104(s1)
    80002732:	c070                	sw	a2,68(s0)
    80002734:	2902                	fld	fs2,0(sp)
    80002736:	40bd                	li	ra,15
    80002738:	abb9                	j	80002c96 <input_data+0x2696>
    8000273a:	c0fe                	sw	t6,64(sp)
    8000273c:	78ee                	ld	a7,248(sp)
    8000273e:	a68fc02f          	.insn	4, 0xa68fc02f
    80002742:	3fe4                	fld	fs1,248(a5)
    80002744:	b3ce                	fsd	fs3,480(sp)
    80002746:	c0d4                	sw	a3,4(s1)
    80002748:	0f4d                	addi	t5,t5,19
    8000274a:	40b8                	lw	a4,64(s1)
    8000274c:	c1059cc3          	fmadd.s	fs9,fa1,fa6,fs8,rtz
    80002750:	411dc7e7          	.insn	4, 0x411dc7e7
    80002754:	fbce                	sd	s3,496(sp)
    80002756:	40be                	lw	ra,204(sp)
    80002758:	b1d5                	j	8000243c <input_data+0x1e3c>
    8000275a:	40c0                	lw	s0,4(s1)
    8000275c:	51d2                	lw	gp,52(sp)
    8000275e:	3f5a                	fld	ft10,432(sp)
    80002760:	40a7082b          	.insn	4, 0x40a7082b
    80002764:	6e7a                	ld	t3,408(sp)
    80002766:	f845400b          	.insn	4, 0xf845400b
    8000276a:	4119                	li	sp,6
    8000276c:	4651                	li	a2,20
    8000276e:	c102                	sw	zero,128(sp)
    80002770:	bb41                	j	80002500 <input_data+0x1f00>
    80002772:	40c1                	li	ra,16
    80002774:	e0c9                	bnez	s1,800027f6 <input_data+0x21f6>
    80002776:	e8ec4113          	xori	sp,s8,-370
    8000277a:	40a9                	li	ra,10
    8000277c:	5189                	li	gp,-30
    8000277e:	c10e                	sw	gp,128(sp)
    80002780:	3df898b3          	.insn	4, 0x3df898b3
    80002784:	618a                	ld	gp,128(sp)
    80002786:	6ce34113          	xori	sp,t1,1742
    8000278a:	3e92                	fld	ft9,288(sp)
    8000278c:	3f8df7d7          	vsetvli	a5,s11,1016
    80002790:	f23c                	sd	a5,96(a2)
    80002792:	fa20c107          	.insn	4, 0xfa20c107
    80002796:	40f4                	lw	a3,68(s1)
    80002798:	7acc                	ld	a1,176(a3)
    8000279a:	4018                	lw	a4,0(s0)
    8000279c:	7ae5                	lui	s5,0xffff9
    8000279e:	755b4083          	lbu	ra,1877(s6)
    800027a2:	c11f 8f93 40f0      	.insn	6, 0x40f08f93c11f
    800027a8:	40e04227          	.insn	4, 0x40e04227
    800027ac:	1fe2                	slli	t6,t6,0x38
    800027ae:	40c8                	lw	a0,4(s1)
    800027b0:	d6d0                	sw	a2,44(a3)
    800027b2:	3fad                	addiw	t6,t6,-21
    800027b4:	ad92                	fsd	ft4,216(sp)
    800027b6:	1d84c0c3          	.insn	4, 0x1d84c0c3
    800027ba:	40a2                	lw	ra,8(sp)
    800027bc:	d880                	sw	s0,48(s1)
    800027be:	c0f6                	sw	t4,64(sp)
    800027c0:	2a8d                	addiw	s5,s5,3 # ffffffffffff9003 <_end+0xffffffff7ffe8003>
    800027c2:	bfb1                	j	8000271e <input_data+0x211e>
    800027c4:	99ac                	.insn	2, 0x99ac
    800027c6:	c090                	sw	a2,0(s1)
    800027c8:	2e7d                	addiw	t3,t3,31
    800027ca:	40c4                	lw	s1,4(s1)
    800027cc:	40b80293          	addi	t0,a6,1035
    800027d0:	7419                	lui	s0,0xfffe6
    800027d2:	401a                	.insn	2, 0x401a
    800027d4:	6fe1                	lui	t6,0x18
    800027d6:	40a9                	li	ra,10
    800027d8:	f139                	bnez	a0,8000271e <input_data+0x211e>
    800027da:	c0f4                	sw	a3,68(s1)
    800027dc:	701e                	.insn	2, 0x701e
    800027de:	7ceec03b          	.insn	4, 0x7ceec03b
    800027e2:	d9513fe7          	.insn	4, 0xd9513fe7
    800027e6:	40c8                	lw	a0,4(s1)
    800027e8:	b7ed                	j	800027d2 <input_data+0x21d2>
    800027ea:	40ea                	lw	ra,152(sp)
    800027ec:	19df 4005 91d1      	.insn	6, 0x91d1400519df
    800027f2:	4009                	c.li	zero,2
    800027f4:	6fdd                	lui	t6,0x17
    800027f6:	63b440eb          	.insn	4, 0x63b440eb
    800027fa:	c0ea                	sw	s10,64(sp)
    800027fc:	7bdc                	ld	a5,176(a5)
    800027fe:	c100                	sw	s0,0(a0)
    80002800:	9492                	add	s1,s1,tp
    80002802:	3e8c                	fld	fa1,56(a3)
    80002804:	b310                	fsd	fa2,32(a4)
    80002806:	d19ebdb7          	lui	s11,0xd19eb
    8000280a:	bf2e                	fsd	fa1,440(sp)
    8000280c:	5cad                	li	s9,-21
    8000280e:	c0ac                	sw	a1,64(s1)
    80002810:	e2f8                	sd	a4,192(a3)
    80002812:	40a9                	li	ra,10
    80002814:	3fbc                	fld	fa5,120(a5)
    80002816:	c03d                	beqz	s0,8000287c <input_data+0x227c>
    80002818:	40f30eef          	jal	t4,80033426 <_end+0x22426>
    8000281c:	b142                	fsd	fa6,160(sp)
    8000281e:	9839403f b140410e 	.insn	8, 0xb140410e9839403f
    80002826:	c0e6                	sw	s9,64(sp)
    80002828:	c087f36b          	.insn	4, 0xc087f36b
    8000282c:	67cd                	lui	a5,0x13
    8000282e:	c09a                	sw	t1,64(sp)
    80002830:	4114d557          	.insn	4, 0x4114d557
    80002834:	b4e1                	j	800022fc <input_data+0x1cfc>
    80002836:	8762c0f3          	.insn	4, 0x8762c0f3
    8000283a:	4070                	lw	a2,68(s0)
    8000283c:	d18d                	beqz	a1,8000275e <input_data+0x215e>
    8000283e:	c0df f2cb bfb3      	.insn	6, 0xbfb3f2cbc0df
    80002844:	3f9c                	fld	fa5,56(a5)
    80002846:	4ba8c0d3          	.insn	4, 0x4ba8c0d3
    8000284a:	71a6c107          	.insn	4, 0x71a6c107
    8000284e:	ce42c0af          	.insn	4, 0xce42c0af
    80002852:	409f 83ca 4117      	.insn	6, 0x411783ca409f
    80002858:	4084c767          	.insn	4, 0x4084c767
    8000285c:	c1080917          	auipc	s2,0xc1080
    80002860:	e0ee                	sd	s11,64(sp)
    80002862:	c0e1                	beqz	s1,80002922 <input_data+0x2322>
    80002864:	a415                	j	80002a88 <input_data+0x2488>
    80002866:	043a4107          	.insn	4, 0x043a4107
    8000286a:	9c064023          	.insn	4, 0x9c064023
    8000286e:	21183f8f          	.insn	4, 0x21183f8f
    80002872:	4084                	lw	s1,0(s1)
    80002874:	55de                	lw	a1,244(sp)
    80002876:	b656bf33          	.insn	4, 0xb656bf33
    8000287a:	40b0                	lw	a2,64(s1)
    8000287c:	443d                	li	s0,15
    8000287e:	c0df cadd c10e      	.insn	6, 0xc10ecaddc0df
    80002884:	4067eebb          	.insn	4, 0x4067eebb
    80002888:	3e2c43b3          	.insn	4, 0x3e2c43b3
    8000288c:	c0c0a0d3          	.insn	4, 0xc0c0a0d3
    80002890:	13b2                	slli	t2,t2,0x2c
    80002892:	3cde                	fld	fs9,496(sp)
    80002894:	f176                	sd	t4,160(sp)
    80002896:	6d8f4107          	.insn	4, 0x6d8f4107
    8000289a:	4058                	lw	a4,4(s0)
    8000289c:	2060                	fld	fs0,192(s0)
    8000289e:	c089                	beqz	s1,800028a0 <input_data+0x22a0>
    800028a0:	b00c                	fsd	fa1,32(s0)
    800028a2:	a9e740c7          	fmsub.s	ft1,fa4,ft10,fs5,rmm
    800028a6:	c0f5                	beqz	s1,8000298a <input_data+0x238a>
    800028a8:	774d                	lui	a4,0xffff3
    800028aa:	4248c0a7          	.insn	4, 0x4248c0a7
    800028ae:	0e22410b          	.insn	4, 0x0e22410b
    800028b2:	c0c1                	beqz	s1,80002932 <input_data+0x2332>
    800028b4:	e2a6                	sd	s1,320(sp)
    800028b6:	c0fe                	sw	t6,64(sp)
    800028b8:	2c02                	fld	fs8,0(sp)
    800028ba:	c089                	beqz	s1,800028bc <input_data+0x22bc>
    800028bc:	eb8e                	sd	gp,464(sp)
    800028be:	40c5                	li	ra,17
    800028c0:	def8                	sw	a4,124(a3)
    800028c2:	40e8                	lw	a0,68(s1)
    800028c4:	1b69                	addi	s6,s6,-6
    800028c6:	b261c0c3          	fmadd.d	ft1,ft3,ft6,fs6,rmm
    800028ca:	a902c0af          	.insn	4, 0xa902c0af
    800028ce:	c0c2                	sw	a6,64(sp)
    800028d0:	4037c6ef          	jal	a3,8007f4d2 <_end+0x6e4d2>
    800028d4:	0df2                	slli	s11,s11,0x1c
    800028d6:	25834103          	lbu	sp,600(t1)
    800028da:	410c                	lw	a1,0(a0)
    800028dc:	5061                	c.li	zero,-8
    800028de:	c0c4                	sw	s1,4(s1)
    800028e0:	ab09                	j	80002df2 <input_data+0x27f2>
    800028e2:	ba62410f          	.insn	4, 0xba62410f
    800028e6:	c0ce                	sw	s3,64(sp)
    800028e8:	bd2502ef          	jal	t0,7ff52cba <_start-0xad346>
    800028ec:	c08668f7          	.insn	4, 0xc08668f7
    800028f0:	27a0                	fld	fs0,72(a5)
    800028f2:	c085                	beqz	s1,80002912 <input_data+0x2312>
    800028f4:	112a                	slli	sp,sp,0x2a
    800028f6:	40fc                	lw	a5,68(s1)
    800028f8:	748e                	ld	s1,224(sp)
    800028fa:	c11f aa32 c0f1      	.insn	6, 0xc0f1aa32c11f
    80002900:	c01414d3          	fcvt.wu.s	s1,fs0,rtz
    80002904:	fba4                	sd	s1,112(a5)
    80002906:	b9cb410b          	.insn	4, 0xb9cb410b
    8000290a:	c11c                	sw	a5,0(a0)
    8000290c:	dc1a                	sw	t1,56(sp)
    8000290e:	bf1e                	fsd	ft7,440(sp)
    80002910:	3a31                	addiw	s4,s4,-20
    80002912:	c86dc107          	.insn	4, 0xc86dc107
    80002916:	c075                	beqz	s0,800029fa <input_data+0x23fa>
    80002918:	c099eb27          	.insn	4, 0xc099eb27
    8000291c:	dd4a                	sw	s2,184(sp)
    8000291e:	c0ad                	beqz	s1,80002980 <input_data+0x2380>
    80002920:	6df2                	ld	s11,280(sp)
    80002922:	4096                	lw	ra,68(sp)
    80002924:	f6c2                	sd	a6,360(sp)
    80002926:	ece540cb          	.insn	4, 0xece540cb
    8000292a:	c0d0                	sw	a2,4(s1)
    8000292c:	400f2d73          	csrrs	s10,0x400,t5
    80002930:	409574d3          	.insn	4, 0x409574d3
    80002934:	c07ad9d3          	.insn	4, 0xc07ad9d3
    80002938:	4a1f c09b 4abd      	.insn	6, 0x4abdc09b4a1f
    8000293e:	4119                	li	sp,6
    80002940:	bd4e                	fsd	fs3,184(sp)
    80002942:	c110                	sw	a2,0(a0)
    80002944:	fbb5                	bnez	a5,800028b8 <input_data+0x22b8>
    80002946:	c024                	sw	s1,64(s0)
    80002948:	fe5d                	bnez	a2,80002906 <input_data+0x2306>
    8000294a:	03ef3f93          	sltiu	t6,t5,62
    8000294e:	3f3c                	fld	fa5,120(a4)
    80002950:	1182                	slli	gp,gp,0x20
    80002952:	40be                	lw	ra,204(sp)
    80002954:	3f2f04ab          	.insn	4, 0x3f2f04ab
    80002958:	2f06                	fld	ft10,64(sp)
    8000295a:	c0d1                	beqz	s1,800029de <input_data+0x23de>
    8000295c:	9621                	srai	a2,a2,0x28
    8000295e:	c10c                	sw	a1,0(a0)
    80002960:	8484                	.insn	2, 0x8484
    80002962:	bf58                	fsd	fa4,184(a4)
    80002964:	71a6                	ld	gp,104(sp)
    80002966:	c116                	sw	t0,128(sp)
    80002968:	c00d944b          	fnmsub.s	fs0,fs11,ft0,fs8,rtz
    8000296c:	eae2                	sd	s8,336(sp)
    8000296e:	40ec                	lw	a1,68(s1)
    80002970:	410f643f c0f64558 	.insn	8, 0xc0f64558410f643f
    80002978:	c88a                	sw	sp,80(sp)
    8000297a:	40ae                	lw	ra,200(sp)
    8000297c:	6d76                	ld	s10,344(sp)
    8000297e:	bedf fb43 c10e      	.insn	6, 0xc10efb43bedf
    80002984:	5582                	lw	a1,32(sp)
    80002986:	4016                	.insn	2, 0x4016
    80002988:	ad79                	j	80003026 <input_data+0x2a26>
    8000298a:	beec                	fsd	fa1,248(a3)
    8000298c:	10fd                	addi	ra,ra,-1
    8000298e:	c03a                	sw	a4,0(sp)
    80002990:	ae5c                	fsd	fa5,152(a2)
    80002992:	bebe                	fsd	fa5,376(sp)
    80002994:	6949                	lui	s2,0x12
    80002996:	3db6                	fld	fs11,360(sp)
    80002998:	a20e                	fsd	ft3,256(sp)
    8000299a:	298d3f83          	ld	t6,664(s10)
    8000299e:	c021                	beqz	s0,800029de <input_data+0x23de>
    800029a0:	99b9                	andi	a1,a1,-18
    800029a2:	40ac                	lw	a1,64(s1)
    800029a4:	18e0                	addi	s0,sp,124
    800029a6:	c110                	sw	a2,0(a0)
    800029a8:	e4d5                	bnez	s1,80002a54 <input_data+0x2454>
    800029aa:	4100                	lw	s0,0(a0)
    800029ac:	415d                	li	sp,23
    800029ae:	c085                	beqz	s1,800029ce <input_data+0x23ce>
    800029b0:	c1194feb          	.insn	4, 0xc1194feb
    800029b4:	b28e                	fsd	ft3,352(sp)
    800029b6:	bfce                	fsd	fs3,504(sp)
    800029b8:	952d                	srai	a0,a0,0x2b
    800029ba:	011dbe57          	vadd.vi	v28,v17,-5,v0.t
    800029be:	bfc2                	fsd	fa6,504(sp)
    800029c0:	c0bc0073          	.insn	4, 0xc0bc0073
    800029c4:	8a48                	.insn	2, 0x8a48
    800029c6:	c11c                	sw	a5,0(a0)
    800029c8:	a858                	fsd	fa4,144(s0)
    800029ca:	3f69                	addiw	t5,t5,-6
    800029cc:	be9e                	fsd	ft7,376(sp)
    800029ce:	410c                	lw	a1,0(a0)
    800029d0:	40bf8c33          	sub	s8,t6,a1
    800029d4:	1f60                	addi	s0,sp,956
    800029d6:	4000                	lw	s0,0(s0)
    800029d8:	26c0                	fld	fs0,136(a3)
    800029da:	8fa33f43          	.insn	4, 0x8fa33f43
    800029de:	de7f4037          	lui	zero,0xde7f4
    800029e2:	402d4067          	.insn	4, 0x402d4067
    800029e6:	46aa3e6b          	.insn	4, 0x46aa3e6b
    800029ea:	c044                	sw	s1,4(s0)
    800029ec:	215e                	fld	ft2,464(sp)
    800029ee:	c0f1                	beqz	s1,80002ab2 <input_data+0x24b2>
    800029f0:	5570                	lw	a2,108(a0)
    800029f2:	410e                	lw	sp,192(sp)
    800029f4:	4995                	li	s3,5
    800029f6:	c0c2                	sw	a6,64(sp)
    800029f8:	ca10                	sw	a2,16(a2)
    800029fa:	e2ecc0a7          	.insn	4, 0xe2ecc0a7
    800029fe:	4116                	lw	sp,68(sp)
    80002a00:	eae6                	sd	s9,336(sp)
    80002a02:	a45dc003          	lbu	zero,-1467(s11) # ffffffffd19eaa45 <_end+0xffffffff519d9a45>
    80002a06:	bd10                	fsd	fa2,56(a0)
    80002a08:	1412                	slli	s0,s0,0x24
    80002a0a:	83d3c03b          	.insn	4, 0x83d3c03b
    80002a0e:	058e40cb          	.insn	4, 0x058e40cb
    80002a12:	caa0c027          	.insn	4, 0xcaa0c027
    80002a16:	4100                	lw	s0,0(a0)
    80002a18:	3dd9                	addiw	s11,s11,-10
    80002a1a:	c114                	sw	a3,0(a0)
    80002a1c:	3bcd                	addiw	s7,s7,-13 # cff3 <_start-0x7fff300d>
    80002a1e:	6e5b4017          	auipc	zero,0x6e5b4
    80002a22:	c0dc                	sw	a5,4(s1)
    80002a24:	0636                	slli	a2,a2,0xd
    80002a26:	bf71                	j	800029c2 <input_data+0x23c2>
    80002a28:	c0df07db          	.insn	4, 0xc0df07db
    80002a2c:	403af0c3          	fmadd.s	ft1,fs5,ft3,fs0
    80002a30:	ede0                	sd	s0,216(a1)
    80002a32:	c118                	sw	a4,0(a0)
    80002a34:	c11f3747          	fmsub.s	fa4,ft10,fa7,fs8,rup
    80002a38:	52b1                	li	t0,-20
    80002a3a:	3ad1c0d3          	.insn	4, 0x3ad1c0d3
    80002a3e:	4106                	lw	sp,64(sp)
    80002a40:	90d1                	srli	s1,s1,0x34
    80002a42:	bf4d                	j	800029f4 <input_data+0x23f4>
    80002a44:	867d                	srai	a2,a2,0x1f
    80002a46:	1b8640d7          	vmaxu.vx	v1,v24,a2
    80002a4a:	be20                	fsd	fs0,120(a2)
    80002a4c:	fd31                	bnez	a0,800029a8 <input_data+0x23a8>
    80002a4e:	c0dc                	sw	a5,4(s1)
    80002a50:	c4d6                	sw	s5,72(sp)
    80002a52:	aa2a40f3          	.insn	4, 0xaa2a40f3
    80002a56:	40a9                	li	ra,10
    80002a58:	9db2                	add	s11,s11,a2
    80002a5a:	afd9bfe7          	.insn	4, 0xafd9bfe7
    80002a5e:	c0e5                	beqz	s1,80002b3e <input_data+0x253e>
    80002a60:	c3bd                	beqz	a5,80002ac6 <input_data+0x24c6>
    80002a62:	410c                	lw	a1,0(a0)
    80002a64:	5b81                	li	s7,-32
    80002a66:	e9b44023          	.insn	4, 0xe9b44023
    80002a6a:	40c2                	lw	ra,16(sp)
    80002a6c:	40abf263          	bgeu	s7,a0,80002e70 <input_data+0x2870>
    80002a70:	bff1f267          	.insn	4, 0xbff1f267
    80002a74:	a5b5                	j	800030e0 <input_data+0x2ae0>
    80002a76:	3e2e                	fld	ft8,232(sp)
    80002a78:	c114dc6b          	.insn	4, 0xc114dc6b
    80002a7c:	5484                	lw	s1,40(s1)
    80002a7e:	40ba                	lw	ra,140(sp)
    80002a80:	4cf5                	li	s9,29
    80002a82:	404e                	.insn	2, 0x404e
    80002a84:	f284                	sd	s1,32(a3)
    80002a86:	c046                	sw	a7,0(sp)
    80002a88:	bfb0a9ef          	jal	s3,7ff0d682 <_start-0xf297e>
    80002a8c:	e704                	sd	s1,8(a4)
    80002a8e:	4028                	lw	a0,64(s0)
    80002a90:	d53d                	beqz	a0,800029fe <input_data+0x23fe>
    80002a92:	c10d                	beqz	a0,80002ab4 <input_data+0x24b4>
    80002a94:	401f4c77          	.insn	4, 0x401f4c77
    80002a98:	34ee                	fld	fs1,248(sp)
    80002a9a:	7510c0c3          	.insn	4, 0x7510c0c3
    80002a9e:	c074                	sw	a3,68(s0)
    80002aa0:	2229                	addiw	tp,tp,10 # a <_start-0x7ffffff6>
    80002aa2:	4106                	lw	sp,64(sp)
    80002aa4:	c0b79e13          	.insn	4, 0xc0b79e13
    80002aa8:	2aa6                	fld	fs5,72(sp)
    80002aaa:	c0b8                	sw	a4,64(s1)
    80002aac:	40ec3a23          	sd	a4,1044(s8)
    80002ab0:	40cdfe43          	fmadd.s	ft8,fs11,fa2,fs0
    80002ab4:	3fb86de7          	.insn	4, 0x3fb86de7
    80002ab8:	00de                	slli	ra,ra,0x17
    80002aba:	de1840db          	.insn	4, 0xde1840db
    80002abe:	c0f2                	sw	t3,64(sp)
    80002ac0:	411e80c7          	fmsub.s	ft1,ft9,fa7,fs0,rne
    80002ac4:	4110321b          	.insn	4, 0x4110321b
    80002ac8:	bfcefa7b          	.insn	4, 0xbfcefa7b
    80002acc:	40f89ec3          	fmadd.s	ft9,fa7,fa5,fs0,rtz
    80002ad0:	fdd0                	sd	a2,184(a1)
    80002ad2:	40e9                	li	ra,26
    80002ad4:	8a76                	mv	s4,t4
    80002ad6:	4012                	.insn	2, 0x4012
    80002ad8:	cd92                	sw	tp,216(sp)
    80002ada:	4019                	c.li	zero,6
    80002adc:	e5ff 411e 38d2 c0d3 	.insn	22, 0xe33fc0ba78c2c04773433f9a8b2ac0d338d2411ee5ff
    80002ae4:	8b2a 3f9a 7343 c047 
    80002aec:	78c2 c0ba e33f 
    80002af2:	bf2a                	fsd	fa0,440(sp)
    80002af4:	41127eb7          	lui	t4,0x41127
    80002af8:	68c0                	ld	s0,144(s1)
    80002afa:	40f5                	li	ra,29
    80002afc:	1850                	addi	a2,sp,52
    80002afe:	bf8c                	fsd	fa1,56(a5)
    80002b00:	a954                	fsd	fa3,144(a0)
    80002b02:	bf4d                	j	80002ab4 <input_data+0x24b4>
    80002b04:	db10                	sw	a2,48(a4)
    80002b06:	5203c0f7          	.insn	4, 0x5203c0f7
    80002b0a:	c0a6                	sw	s1,64(sp)
    80002b0c:	3f054163          	blt	a0,a6,80002eee <input_data+0x28ee>
    80002b10:	c0cdb93f 40e2052f 	.insn	8, 0x40e2052fc0cdb93f
    80002b18:	9482                	jalr	s1
    80002b1a:	411a                	lw	sp,132(sp)
    80002b1c:	407179fb          	.insn	4, 0x407179fb
    80002b20:	796a                	ld	s2,184(sp)
    80002b22:	c0f2                	sw	t3,64(sp)
    80002b24:	c0870f73          	.insn	4, 0xc0870f73
    80002b28:	2551                	addiw	a0,a0,20
    80002b2a:	b0fb40a3          	.insn	4, 0xb0fb40a3
    80002b2e:	bfc2                	fsd	fa6,504(sp)
    80002b30:	a69c                	fsd	fa5,8(a3)
    80002b32:	621bbf53          	.insn	4, 0x621bbf53
    80002b36:	40c9                	li	ra,18
    80002b38:	9cfa                	add	s9,s9,t5
    80002b3a:	c0b5                	beqz	s1,80002b9e <input_data+0x259e>
    80002b3c:	efba                	sd	a4,472(sp)
    80002b3e:	4104                	lw	s1,0(a0)
    80002b40:	4110ca57          	vadc.vxm	v20,v17,ra,v0
    80002b44:	f402                	sd	zero,40(sp)
    80002b46:	a066be8b          	.insn	4, 0xa066be8b
    80002b4a:	bf88                	fsd	fa0,56(a5)
    80002b4c:	3a0c                	fld	fa1,48(a2)
    80002b4e:	4101                	li	sp,0
    80002b50:	e361                	bnez	a4,80002c10 <input_data+0x2610>
    80002b52:	c095                	beqz	s1,80002b76 <input_data+0x2576>
    80002b54:	3f79                	addiw	t5,t5,-2
    80002b56:	3f94                	fld	fa3,56(a5)
    80002b58:	6c72                	ld	s8,280(sp)
    80002b5a:	e7dac0a3          	.insn	4, 0xe7dac0a3
    80002b5e:	c01f e497 40ac      	.insn	6, 0x40ace497c01f
    80002b64:	1c7e                	slli	s8,s8,0x3f
    80002b66:	023040f7          	.insn	4, 0x023040f7
    80002b6a:	4099                	li	ra,6
    80002b6c:	e15d                	bnez	a0,80002c12 <input_data+0x2612>
    80002b6e:	c019                	beqz	s0,80002b74 <input_data+0x2574>
    80002b70:	c1120c33          	.insn	4, 0xc1120c33
    80002b74:	921d                	srli	a2,a2,0x27
    80002b76:	0f36c10b          	.insn	4, 0x0f36c10b
    80002b7a:	c115                	beqz	a0,80002b9e <input_data+0x259e>
    80002b7c:	8901                	andi	a0,a0,0
    80002b7e:	408d                	li	ra,3
    80002b80:	fc4e                	sd	s3,56(sp)
    80002b82:	40f8                	lw	a4,68(s1)
    80002b84:	562e                	lw	a2,232(sp)
    80002b86:	4084                	lw	s1,0(s1)
    80002b88:	8ec2                	mv	t4,a6
    80002b8a:	411a                	lw	sp,132(sp)
    80002b8c:	0db2                	slli	s11,s11,0xc
    80002b8e:	3f8c                	fld	fa1,56(a5)
    80002b90:	f35a                	sd	s6,416(sp)
    80002b92:	3fb5                	addiw	t6,t6,-19 # 16fed <_start-0x7ffe9013>
    80002b94:	3fb1                	addiw	t6,t6,-20
    80002b96:	c11c                	sw	a5,0(a0)
    80002b98:	3d68                	fld	fa0,248(a0)
    80002b9a:	c0e8                	sw	a0,68(s1)
    80002b9c:	e26d                	bnez	a2,80002c7e <input_data+0x267e>
    80002b9e:	c112                	sw	tp,128(sp)
    80002ba0:	4099bfb3          	.insn	4, 0x4099bfb3
    80002ba4:	4d49                	li	s10,18
    80002ba6:	c008                	sw	a0,0(s0)
    80002ba8:	1ec9                	addi	t4,t4,-14 # 41126ff2 <_start-0x3eed900e>
    80002baa:	bfcd                	j	80002b9c <input_data+0x259c>
    80002bac:	4084d2e7          	.insn	4, 0x4084d2e7
    80002bb0:	4090                	lw	a2,0(s1)
    80002bb2:	c0f0                	sw	a2,68(s1)
    80002bb4:	bf2b5233          	.insn	4, 0xbf2b5233
    80002bb8:	c025                	beqz	s0,80002c18 <input_data+0x2618>
    80002bba:	c0f2                	sw	t3,64(sp)
    80002bbc:	8099                	srli	s1,s1,0x6
    80002bbe:	4051                	c.li	zero,20
    80002bc0:	9049                	srli	s0,s0,0x32
    80002bc2:	4091                	li	ra,4
    80002bc4:	4a4d                	li	s4,19
    80002bc6:	ea073ff7          	.insn	4, 0xea073ff7
    80002bca:	3f6c                	fld	fa1,248(a4)
    80002bcc:	eaff 401a f075 4114 	.insn	22, 0x1aa2411078b8c0f5a3be40018ffc4114f075401aeaff
    80002bd4:	8ffc 4001 a3be c0f5 
    80002bdc:	78b8 4110 1aa2 
    80002be2:	c0b0                	sw	a2,64(s1)
    80002be4:	1052                	c.slli	zero,0x34
    80002be6:	4031                	c.li	zero,12
    80002be8:	ca3c                	sw	a5,80(a2)
    80002bea:	4089                	li	ra,2
    80002bec:	7e46                	ld	t3,112(sp)
    80002bee:	401e                	.insn	2, 0x401e
    80002bf0:	aebc                	fsd	fa5,88(a3)
    80002bf2:	40f1                	li	ra,28
    80002bf4:	b665                	j	8000279c <input_data+0x219c>
    80002bf6:	40c0                	lw	s0,4(s1)
    80002bf8:	41186b43          	fmadd.s	fs6,fa6,fa7,fs0,unknown
    80002bfc:	1bd0                	addi	a2,sp,500
    80002bfe:	c0f0                	sw	a2,68(s1)
    80002c00:	ab0a                	fsd	ft2,400(sp)
    80002c02:	40c2                	lw	ra,16(sp)
    80002c04:	a7c1                	j	800033c4 <input_data+0x2dc4>
    80002c06:	c04d                	beqz	s0,80002ca8 <input_data+0x26a8>
    80002c08:	8199                	srli	a1,a1,0x6
    80002c0a:	40b1                	li	ra,12
    80002c0c:	b17d                	j	800028ba <input_data+0x22ba>
    80002c0e:	dc1abf3f cc493e46 	.insn	8, 0xcc493e46dc1abf3f
    80002c16:	4096                	lw	ra,68(sp)
    80002c18:	6455                	lui	s0,0x15
    80002c1a:	c116                	sw	t0,128(sp)
    80002c1c:	d7a8                	sw	a0,104(a5)
    80002c1e:	c104                	sw	s1,0(a0)
    80002c20:	714c                	ld	a1,160(a0)
    80002c22:	c088                	sw	a0,0(s1)
    80002c24:	ca64                	sw	s1,84(a2)
    80002c26:	003bbda7          	fsd	ft3,27(s7)
    80002c2a:	c05e                	sw	s7,0(sp)
    80002c2c:	1b69                	addi	s6,s6,-6
    80002c2e:	1850c09b          	.insn	4, 0x1850c09b
    80002c32:	bfbe                	fsd	fa5,504(sp)
    80002c34:	34f1                	addiw	s1,s1,-4
    80002c36:	47c3c113          	xori	sp,t2,1148
    80002c3a:	40e0                	lw	s0,68(s1)
    80002c3c:	e304                	sd	s1,0(a4)
    80002c3e:	c0ad                	beqz	s1,80002ca0 <input_data+0x26a0>
    80002c40:	40293bef          	jal	s7,80096042 <_end+0x85042>
    80002c44:	bd9f c0b1 f50a      	.insn	6, 0xf50ac0b1bd9f
    80002c4a:	c07c                	sw	a5,68(s0)
    80002c4c:	a59a                	fsd	ft6,200(sp)
    80002c4e:	40c1                	li	ra,16
    80002c50:	c1019487          	.insn	4, 0xc1019487
    80002c54:	3f64013f c0a491be 	.insn	8, 0xc0a491be3f64013f
    80002c5c:	bf222d73          	csrrs	s10,0xbf2,tp
    80002c60:	7a40                	ld	s0,176(a2)
    80002c62:	40d6                	lw	ra,84(sp)
    80002c64:	6009                	c.lui	zero,0x2
    80002c66:	2019c0b3          	.insn	4, 0x2019c0b3
    80002c6a:	3ef1                	addiw	t4,t4,-4
    80002c6c:	0825                	addi	a6,a6,9
    80002c6e:	baac40e7          	.insn	4, 0xbaac40e7
    80002c72:	ff1e4103          	lbu	sp,-15(t3)
    80002c76:	408a                	lw	ra,128(sp)
    80002c78:	bce4                	fsd	fs1,248(s1)
    80002c7a:	4085                	li	ra,1
    80002c7c:	8a76                	mv	s4,t4
    80002c7e:	e2ebc10b          	.insn	4, 0xe2ebc10b
    80002c82:	3d36                	fld	fs10,360(sp)
    80002c84:	1b2e                	slli	s6,s6,0x2b
    80002c86:	3eed                	addiw	t4,t4,-5
    80002c88:	8ff5                	and	a5,a5,a3
    80002c8a:	c0dc                	sw	a5,4(s1)
    80002c8c:	40dd7a03          	.insn	4, 0x40dd7a03
    80002c90:	41052793          	slti	a5,a0,1040
    80002c94:	6c44                	ld	s1,152(s0)
    80002c96:	401e                	.insn	2, 0x401e
    80002c98:	d6d0                	sw	a2,44(a3)
    80002c9a:	f4f1c073          	.insn	4, 0xf4f1c073
    80002c9e:	c018                	sw	a4,0(s0)
    80002ca0:	ca64                	sw	s1,84(a2)
    80002ca2:	c031                	beqz	s0,80002ce6 <input_data+0x26e6>
    80002ca4:	50a0                	lw	s0,96(s1)
    80002ca6:	c082                	sw	zero,64(sp)
    80002ca8:	f344                	sd	s1,160(a4)
    80002caa:	c11f 30d4 4119      	.insn	6, 0x411930d4c11f
    80002cb0:	1379                	addi	t1,t1,-2
    80002cb2:	c111                	beqz	a0,80002cb6 <input_data+0x26b6>
    80002cb4:	cb3e                	sw	a5,148(sp)
    80002cb6:	40ec                	lw	a1,68(s1)
    80002cb8:	f249                	bnez	a2,80002c3a <input_data+0x263a>
    80002cba:	4079                	c.li	zero,30
    80002cbc:	7a4e                	ld	s4,240(sp)
    80002cbe:	c109                	beqz	a0,80002cc0 <input_data+0x26c0>
    80002cc0:	ee2d                	bnez	a2,80002d3a <input_data+0x273a>
    80002cc2:	d7f9bf6b          	.insn	4, 0xd7f9bf6b
    80002cc6:	ec9ec117          	auipc	sp,0xec9ec
    80002cca:	c10e                	sw	gp,128(sp)
    80002ccc:	7eaa                	ld	t4,168(sp)
    80002cce:	bfa1                	j	80002c26 <input_data+0x2626>
    80002cd0:	5512                	lw	a0,36(sp)
    80002cd2:	c118                	sw	a4,0(a0)
    80002cd4:	d9fd                	beqz	a1,80002cca <input_data+0x26ca>
    80002cd6:	b414406f          	j	7ff47816 <_start-0xb87ea>
    80002cda:	84cb3f87          	fld	ft11,-1972(s6)
    80002cde:	40b2                	lw	ra,12(sp)
    80002ce0:	cc1d                	beqz	s0,80002d1e <input_data+0x271e>
    80002ce2:	3fa8                	fld	fa0,120(a5)
    80002ce4:	70fe                	ld	ra,504(sp)
    80002ce6:	40be                	lw	ra,204(sp)
    80002ce8:	4e79                	li	t3,30
    80002cea:	ace240a7          	.insn	4, 0xace240a7
    80002cee:	c05a                	sw	s6,0(sp)
    80002cf0:	fcee                	sd	s11,120(sp)
    80002cf2:	4106                	lw	sp,64(sp)
    80002cf4:	b225                	j	8000261c <input_data+0x201c>
    80002cf6:	c0c0                	sw	s0,4(s1)
    80002cf8:	bdba                	fsd	fa4,248(sp)
    80002cfa:	40e6                	lw	ra,88(sp)
    80002cfc:	408886af          	.insn	4, 0x408886af
    80002d00:	99b1                	andi	a1,a1,-20
    80002d02:	1af8411b          	.insn	4, 0x1af8411b
    80002d06:	c07d                	beqz	s0,80002dec <input_data+0x27ec>
    80002d08:	9069                	srli	s0,s0,0x3a
    80002d0a:	4066                	.insn	2, 0x4066
    80002d0c:	40ba6543          	fmadd.s	fa0,fs4,fa1,fs0,unknown
    80002d10:	5391                	li	t2,-28
    80002d12:	c0f4                	sw	a3,68(s1)
    80002d14:	ff90                	sd	a2,56(a5)
    80002d16:	ccd9c117          	auipc	sp,0xccd9c
    80002d1a:	c09d                	beqz	s1,80002d40 <input_data+0x2740>
    80002d1c:	060a                	slli	a2,a2,0x2
    80002d1e:	4105                	li	sp,1
    80002d20:	57c5                	li	a5,-15
    80002d22:	c048                	sw	a0,4(s0)
    80002d24:	c0e2255b          	.insn	4, 0xc0e2255b
    80002d28:	21a0                	fld	fs0,64(a1)
    80002d2a:	c119                	beqz	a0,80002d30 <input_data+0x2730>
    80002d2c:	4a08                	lw	a0,16(a2)
    80002d2e:	c0ba                	sw	a4,64(sp)
    80002d30:	c10680eb          	.insn	4, 0xc10680eb
    80002d34:	3cee                	fld	fs9,248(sp)
    80002d36:	4101                	li	sp,0
    80002d38:	2e98                	fld	fa4,24(a3)
    80002d3a:	c11d                	beqz	a0,80002d60 <input_data+0x2760>
    80002d3c:	c1049543          	fmadd.s	fa0,fs1,fa6,fs8,rtz
    80002d40:	2285                	addiw	t0,t0,1
    80002d42:	3f9d                	addiw	t6,t6,-25
    80002d44:	f1a6                	sd	s1,224(sp)
    80002d46:	c034                	sw	a3,64(s0)
    80002d48:	5ad9                	li	s5,-10
    80002d4a:	40e5                	li	ra,25
    80002d4c:	056a                	slli	a0,a0,0x1a
    80002d4e:	40d5                	li	ra,21
    80002d50:	1716                	slli	a4,a4,0x25
    80002d52:	c085                	beqz	s1,80002d72 <input_data+0x2772>
    80002d54:	1ac5                	addi	s5,s5,-15
    80002d56:	c0ed                	beqz	s1,80002e38 <input_data+0x2838>
    80002d58:	c086ebb3          	.insn	4, 0xc086ebb3
    80002d5c:	225e                	fld	ft4,464(sp)
    80002d5e:	e7f4c0af          	.insn	4, 0xe7f4c0af
    80002d62:	c110                	sw	a2,0(a0)
    80002d64:	cf1f 4103 705d      	.insn	6, 0x705d4103cf1f
    80002d6a:	bf80                	fsd	fs0,56(a5)
    80002d6c:	c65f c089 ec92      	.insn	6, 0xec92c089c65f
    80002d72:	6f82408f          	.insn	4, 0x6f82408f
    80002d76:	c00a                	sw	sp,0(sp)
    80002d78:	c112f873          	csrrci	a6,hpmcounter17,5
    80002d7c:	f9fd                	bnez	a1,80002d72 <input_data+0x2772>
    80002d7e:	bffa                	fsd	ft10,504(sp)
    80002d80:	17c8                	addi	a0,sp,996
    80002d82:	40a9                	li	ra,10
    80002d84:	faad                	bnez	a3,80002cf6 <input_data+0x26f6>
    80002d86:	c03a                	sw	a4,0(sp)
    80002d88:	40c1cca3          	.insn	4, 0x40c1cca3
    80002d8c:	40fef753          	.insn	4, 0x40fef753
    80002d90:	d489                	beqz	s1,80002c9a <input_data+0x269a>
    80002d92:	bf8c                	fsd	fa1,56(a5)
    80002d94:	c11e9f7f c10efa86 	.insn	12, 0x40d44ac1c10efa86c11e9f7f
    80002d9c:	40d44ac1 
    80002da0:	7115                	addi	sp,sp,-224
    80002da2:	bf9a                	fsd	ft6,504(sp)
    80002da4:	22f9                	addiw	t0,t0,30
    80002da6:	c0ff 261e c0d3 9de0 	.insn	18, 0xc0b105423f90e10dc03b9de0c0d3261ec0ff
    80002dae:	c03b e10d 3f90 0542 
    80002db6:	c0b1 
    80002db8:	c7c5                	beqz	a5,80002e60 <input_data+0x2860>
    80002dba:	c070                	sw	a2,68(s0)
    80002dbc:	3b69                	addiw	s6,s6,-6
    80002dbe:	8942c067          	.insn	4, 0x8942c067
    80002dc2:	40f5                	li	ra,29
    80002dc4:	4f7f c060 4bfd 407e 	.insn	18, 0xf9d740545682c0a747fe407e4bfdc0604f7f
    80002dcc:	47fe c0a7 5682 4054 
    80002dd4:	f9d7 
    80002dd6:	e00140f3          	.insn	4, 0xe00140f3
    80002dda:	4d4640e3          	blt	a2,s4,80003a9a <input_data+0x349a>
    80002dde:	411f 897a be89      	.insn	6, 0xbe89897a411f
    80002de4:	d760                	sw	s0,108(a4)
    80002de6:	40e5                	li	ra,25
    80002de8:	9610                	.insn	2, 0x9610
    80002dea:	3d31                	addiw	s10,s10,-20
    80002dec:	4f40                	lw	s0,28(a4)
    80002dee:	403d                	c.li	zero,15
    80002df0:	7171                	addi	sp,sp,-176
    80002df2:	c039                	beqz	s0,80002e38 <input_data+0x2838>
    80002df4:	bfaddbd3          	.insn	4, 0xbfaddbd3
    80002df8:	3c2e                	fld	fs8,232(sp)
    80002dfa:	93543fb7          	lui	t6,0x93543
    80002dfe:	fe93410b          	.insn	4, 0xfe93410b
    80002e02:	3e3e                	fld	ft8,488(sp)
    80002e04:	11c5                	addi	gp,gp,-15
    80002e06:	c0c4                	sw	s1,4(s1)
    80002e08:	40492d7b          	.insn	4, 0x40492d7b
    80002e0c:	eb5f 4051 babe      	.insn	6, 0xbabe4051eb5f
    80002e12:	c118                	sw	a4,0(a0)
    80002e14:	7b1a                	ld	s6,416(sp)
    80002e16:	3c94c0db          	.insn	4, 0x3c94c0db
    80002e1a:	c0d6                	sw	s5,64(sp)
    80002e1c:	ef31                	bnez	a4,80002e78 <input_data+0x2878>
    80002e1e:	165d4107          	.insn	4, 0x165d4107
    80002e22:	06983e73          	csrrc	t3,0x69,a6
    80002e26:	3752c10b          	.insn	4, 0x3752c10b
    80002e2a:	c0f6                	sw	t4,64(sp)
    80002e2c:	d1e6                	sw	s9,224(sp)
    80002e2e:	c112                	sw	tp,128(sp)
    80002e30:	c09a5333          	.insn	4, 0xc09a5333
    80002e34:	40f927bb          	.insn	4, 0x40f927bb
    80002e38:	be9b2767          	.insn	4, 0xbe9b2767
    80002e3c:	be8641b3          	.insn	4, 0xbe8641b3
    80002e40:	40b22383          	lw	t2,1035(tp) # 40b <_start-0x7ffffbf5>
    80002e44:	fd91                	bnez	a1,80002d60 <input_data+0x2760>
    80002e46:	40b4                	lw	a3,64(s1)
    80002e48:	98e5                	andi	s1,s1,-7
    80002e4a:	f202400f          	.insn	4, 0xf202400f
    80002e4e:	786ec09b          	.insn	4, 0x786ec09b
    80002e52:	c0ce                	sw	s3,64(sp)
    80002e54:	c11914e7          	.insn	4, 0xc11914e7
    80002e58:	5b05                	li	s6,-31
    80002e5a:	4109                	li	sp,2
    80002e5c:	7c59                	lui	s8,0xffff6
    80002e5e:	347fc11b          	.insn	4, 0x347fc11b
    80002e62:	402d                	c.li	zero,11
    80002e64:	e058                	sd	a4,128(s0)
    80002e66:	411a                	lw	sp,132(sp)
    80002e68:	6a5d                	lui	s4,0x17
    80002e6a:	bf38                	fsd	fa4,120(a4)
    80002e6c:	17ce                	slli	a5,a5,0x33
    80002e6e:	c090                	sw	a2,0(s1)
    80002e70:	e0fa                	sd	t5,64(sp)
    80002e72:	c0a2                	sw	s0,64(sp)
    80002e74:	39e2                	fld	fs3,56(sp)
    80002e76:	c11d                	beqz	a0,80002e9c <input_data+0x289c>
    80002e78:	c0d45f8f          	.insn	4, 0xc0d45f8f
    80002e7c:	4734                	lw	a3,72(a4)
    80002e7e:	c09d                	beqz	s1,80002ea4 <input_data+0x28a4>
    80002e80:	7082                	ld	ra,32(sp)
    80002e82:	c0a6                	sw	s1,64(sp)
    80002e84:	c0f0                	sw	a2,68(s1)
    80002e86:	c0c1                	beqz	s1,80002f06 <input_data+0x2906>
    80002e88:	ee7c                	sd	a5,216(a2)
    80002e8a:	401a                	.insn	2, 0x401a
    80002e8c:	4fa5                	li	t6,9
    80002e8e:	4011                	c.li	zero,4
    80002e90:	53a8                	lw	a0,96(a5)
    80002e92:	40c4                	lw	s1,4(s1)
    80002e94:	c0ad924f          	fnmadd.s	ft4,fs11,fa0,fs8,rtz
    80002e98:	3e94                	fld	fa3,56(a3)
    80002e9a:	40ff 9a48 c0c3 7ded 	.insn	18, 0xbf245c7941175286be6a7dedc0c39a4840ff
    80002ea2:	be6a 5286 4117 5c79 
    80002eaa:	bf24 
    80002eac:	be6476f3          	csrrci	a3,0xbe6,8
    80002eb0:	7cdd                	lui	s9,0xffff7
    80002eb2:	c0b5                	beqz	s1,80002f16 <input_data+0x2916>
    80002eb4:	aee6                	fsd	fs9,344(sp)
    80002eb6:	4031                	c.li	zero,12
    80002eb8:	7974                	ld	a3,240(a0)
    80002eba:	40e0                	lw	s0,68(s1)
    80002ebc:	8672                	mv	a2,t3
    80002ebe:	106bc057          	vminu.vx	v0,v6,s7,v0.t
    80002ec2:	c038                	sw	a4,64(s0)
    80002ec4:	44fe                	lw	s1,220(sp)
    80002ec6:	404d                	c.li	zero,19
    80002ec8:	b934                	fsd	fa3,112(a0)
    80002eca:	40e1                	li	ra,24
    80002ecc:	e8c0                	sd	s0,144(s1)
    80002ece:	c050                	sw	a2,4(s0)
    80002ed0:	bfb30cbb          	.insn	4, 0xbfb30cbb
    80002ed4:	c1157763          	bgeu	a0,a7,800022e2 <input_data+0x1ce2>
    80002ed8:	387e                	fld	fa6,504(sp)
    80002eda:	c099                	beqz	s1,80002ee0 <input_data+0x28e0>
    80002edc:	0842                	slli	a6,a6,0x10
    80002ede:	c085                	beqz	s1,80002efe <input_data+0x28fe>
    80002ee0:	beba                	fsd	fa4,376(sp)
    80002ee2:	41813f1b          	.insn	4, 0x41813f1b
    80002ee6:	3e82                	fld	ft9,32(sp)
    80002ee8:	40910d3b          	subw	s10,sp,s1
    80002eec:	bc373083          	ld	ra,-1085(a4) # ffffffffffff2bc3 <_end+0xffffffff7ffe1bc3>
    80002ef0:	a6f2                	fsd	ft8,328(sp)
    80002ef2:	c0d0                	sw	a2,4(s1)
    80002ef4:	86f4                	.insn	2, 0x86f4
    80002ef6:	1c2cbf3f 4867c0b9 	.insn	8, 0x4867c0b91c2cbf3f
    80002efe:	bfe9                	j	80002ed8 <input_data+0x28d8>
    80002f00:	4112f673          	csrrci	a2,0x411,5
    80002f04:	d8b2                	sw	a2,112(sp)
    80002f06:	c05e                	sw	s7,0(sp)
    80002f08:	60a6                	ld	ra,72(sp)
    80002f0a:	40ad                	li	ra,11
    80002f0c:	033e                	slli	t1,t1,0xf
    80002f0e:	c0ce                	sw	s3,64(sp)
    80002f10:	9839                	andi	s0,s0,-18
    80002f12:	3d4d                	addiw	s10,s10,-13
    80002f14:	0e95                	addi	t4,t4,5
    80002f16:	400e                	.insn	2, 0x400e
    80002f18:	9bb2                	add	s7,s7,a2
    80002f1a:	c0cc                	sw	a1,4(s1)
    80002f1c:	ee4a                	sd	s2,280(sp)
    80002f1e:	bf08                	fsd	fa0,56(a4)
    80002f20:	ad84                	fsd	fs1,24(a1)
    80002f22:	947040e7          	.insn	4, 0x947040e7
    80002f26:	4095                	li	ra,5
    80002f28:	4105b1b3          	.insn	4, 0x4105b1b3
    80002f2c:	c0bd5ad3          	.insn	4, 0xc0bd5ad3
    80002f30:	544e                	lw	s0,240(sp)
    80002f32:	c09c                	sw	a5,0(s1)
    80002f34:	ae79                	j	800032d2 <input_data+0x2cd2>
    80002f36:	c0e4                	sw	s1,68(s1)
    80002f38:	1355                	addi	t1,t1,-11
    80002f3a:	bfc0                	fsd	fs0,184(a5)
    80002f3c:	c020533b          	.insn	4, 0xc020533b
    80002f40:	da29                	beqz	a2,80002e92 <input_data+0x2892>
    80002f42:	40a2                	lw	ra,8(sp)
    80002f44:	957d                	srai	a0,a0,0x3f
    80002f46:	3ffc                	fld	fa5,248(a5)
    80002f48:	40ac0c5b          	.insn	4, 0x40ac0c5b
    80002f4c:	ee9a                	sd	t1,344(sp)
    80002f4e:	4049                	c.li	zero,18
    80002f50:	a854                	fsd	fa3,144(s0)
    80002f52:	c035                	beqz	s0,80002fb6 <input_data+0x29b6>
    80002f54:	c0ad927f 4053df16 	.insn	12, 0xc0a932fd4053df16c0ad927f
    80002f5c:	c0a932fd 
    80002f60:	c884                	sw	s1,16(s1)
    80002f62:	40e5                	li	ra,25
    80002f64:	3f9444bf 41111821 	.insn	8, 0x411118213f9444bf
    80002f6c:	a459                	j	800031f2 <input_data+0x2bf2>
    80002f6e:	c0cc                	sw	a1,4(s1)
    80002f70:	a61e                	fsd	ft7,264(sp)
    80002f72:	40ca                	lw	ra,144(sp)
    80002f74:	d2fa                	sw	t5,100(sp)
    80002f76:	4080                	lw	s0,0(s1)
    80002f78:	cb1d                	beqz	a4,80002fae <input_data+0x29ae>
    80002f7a:	4106                	lw	sp,64(sp)
    80002f7c:	bbe0                	fsd	fs0,240(a5)
    80002f7e:	c0ae                	sw	a1,64(sp)
    80002f80:	cdea                	sw	s10,216(sp)
    80002f82:	85d040cb          	.insn	4, 0x85d040cb
    80002f86:	690ac107          	.insn	4, 0x690ac107
    80002f8a:	4116                	lw	sp,68(sp)
    80002f8c:	2c71                	addiw	s8,s8,28 # ffffffffffff601c <_end+0xffffffff7ffe501c>
    80002f8e:	c09c                	sw	a5,0(s1)
    80002f90:	c023e7ab          	.insn	4, 0xc023e7ab
    80002f94:	813d                	srli	a0,a0,0xf
    80002f96:	bf78                	fsd	fa4,248(a4)
    80002f98:	dcf4                	sw	a3,124(s1)
    80002f9a:	c091                	beqz	s1,80002f9e <input_data+0x299e>
    80002f9c:	4070841b          	addiw	s0,ra,1031
    80002fa0:	b351                	j	80002d24 <input_data+0x2724>
    80002fa2:	c106                	sw	ra,128(sp)
    80002fa4:	f8bc                	sd	a5,112(s1)
    80002fa6:	c110                	sw	a2,0(a0)
    80002fa8:	03cd                	addi	t2,t2,19
    80002faa:	409f b94e 3ff2      	.insn	6, 0x3ff2b94e409f
    80002fb0:	245f c0b7 b557      	.insn	6, 0xb557c0b7245f
    80002fb6:	bf6c                	fsd	fa1,248(a4)
    80002fb8:	972d                	srai	a4,a4,0x2b
    80002fba:	4004                	lw	s1,0(s0)
    80002fbc:	40be                	lw	ra,204(sp)
    80002fbe:	40ee                	lw	ra,216(sp)
    80002fc0:	55f8                	lw	a4,108(a1)
    80002fc2:	40fd                	li	ra,31
    80002fc4:	e654                	sd	a3,136(a2)
    80002fc6:	bf92                	fsd	ft4,504(sp)
    80002fc8:	40b1ac3b          	.insn	4, 0x40b1ac3b
    80002fcc:	f102                	sd	zero,160(sp)
    80002fce:	c11c                	sw	a5,0(a0)
    80002fd0:	7006                	.insn	2, 0x7006
    80002fd2:	c11c                	sw	a5,0(a0)
    80002fd4:	8b74                	.insn	2, 0x8b74
    80002fd6:	21c440ab          	.insn	4, 0x21c440ab
    80002fda:	c095                	beqz	s1,80002ffe <input_data+0x29fe>
    80002fdc:	40eee49b          	.insn	4, 0x40eee49b
    80002fe0:	c10c7ab3          	.insn	4, 0xc10c7ab3
    80002fe4:	ba96                	fsd	ft5,368(sp)
    80002fe6:	157b4103          	lbu	sp,343(s6)
    80002fea:	40c5                	li	ra,17
    80002fec:	40493cef          	jal	s9,800963f0 <_end+0x853f0>
    80002ff0:	d49c                	sw	a5,40(s1)
    80002ff2:	4111                	li	sp,4
    80002ff4:	7545                	lui	a0,0xffff1
    80002ff6:	e06ec0bb          	.insn	4, 0xe06ec0bb
    80002ffa:	bff4                	fsd	fa3,248(a5)
    80002ffc:	6d4c                	ld	a1,152(a0)
    80002ffe:	bec1                	j	80002bce <input_data+0x25ce>
    80003000:	ea74                	sd	a3,208(a2)
    80003002:	c0bd                	beqz	s1,80003068 <input_data+0x2a68>
    80003004:	42c2                	lw	t0,16(sp)
    80003006:	4088                	lw	a0,0(s1)
    80003008:	749a                	ld	s1,416(sp)
    8000300a:	4ffdc10b          	.insn	4, 0x4ffdc10b
    8000300e:	c119                	beqz	a0,80003014 <input_data+0x2a14>
    80003010:	4cd9                	li	s9,22
    80003012:	c0d1                	beqz	s1,80003096 <input_data+0x2a96>
    80003014:	3f579cb7          	lui	s9,0x3f579
    80003018:	41b1                	li	gp,12
    8000301a:	c0f0                	sw	a2,68(s1)
    8000301c:	36d6                	fld	fa3,368(sp)
    8000301e:	c0ee                	sw	s11,64(sp)
    80003020:	eea8                	sd	a0,88(a3)
    80003022:	d1ddc08b          	.insn	4, 0xd1ddc08b
    80003026:	401a                	.insn	2, 0x401a
    80003028:	c00f77a3          	.insn	4, 0xc00f77a3
    8000302c:	d1d2                	sw	s4,224(sp)
    8000302e:	c110                	sw	a2,0(a0)
    80003030:	c6bd                	beqz	a3,8000309e <input_data+0x2a9e>
    80003032:	3fce                	fld	ft11,240(sp)
    80003034:	c1021c2b          	.insn	4, 0xc1021c2b
    80003038:	411a9a4b          	fnmsub.s	fs4,fs5,fa7,fs0,rtz
    8000303c:	2ab4                	fld	fa3,80(a3)
    8000303e:	8b7440d3          	.insn	4, 0x8b7440d3
    80003042:	1f4ec0f7          	.insn	4, 0x1f4ec0f7
    80003046:	4108                	lw	a0,0(a0)
    80003048:	8df6                	mv	s11,t4
    8000304a:	4090                	lw	a2,0(s1)
    8000304c:	0c8d                	addi	s9,s9,3 # 3f579003 <_start-0x40a86ffd>
    8000304e:	9b61c0b3          	.insn	4, 0x9b61c0b3
    80003052:	411e                	lw	sp,196(sp)
    80003054:	1ab5                	addi	s5,s5,-19
    80003056:	3e32                	fld	ft8,296(sp)
    80003058:	ab55                	j	8000360c <input_data+0x300c>
    8000305a:	4109                	li	sp,2
    8000305c:	8709                	srai	a4,a4,0x2
    8000305e:	c074                	sw	a3,68(s0)
    80003060:	40ab06a3          	sb	a0,1037(s6)
    80003064:	b0e6                	fsd	fs9,96(sp)
    80003066:	c094                	sw	a3,0(s1)
    80003068:	9a24                	.insn	2, 0x9a24
    8000306a:	bed0                	fsd	fa2,184(a3)
    8000306c:	3ff6becf          	.insn	4, 0x3ff6becf
    80003070:	2c95                	addiw	s9,s9,5
    80003072:	4059                	c.li	zero,22
    80003074:	d879                	beqz	s0,8000304a <input_data+0x2a4a>
    80003076:	c11c                	sw	a5,0(a0)
    80003078:	9412                	add	s0,s0,tp
    8000307a:	c112                	sw	tp,128(sp)
    8000307c:	e460                	sd	s0,200(s0)
    8000307e:	bf41                	j	8000300e <input_data+0x2a0e>
    80003080:	8afe                	mv	s5,t6
    80003082:	40aa                	lw	ra,136(sp)
    80003084:	8bc1                	andi	a5,a5,16
    80003086:	403e                	.insn	2, 0x403e
    80003088:	4cba                	lw	s9,140(sp)
    8000308a:	c0b8                	sw	a4,64(s1)
    8000308c:	8191                	srli	a1,a1,0x4
    8000308e:	3fae                	fld	ft11,232(sp)
    80003090:	f866                	sd	s9,48(sp)
    80003092:	c7543fd3          	.insn	4, 0xc7543fd3
    80003096:	c0e2                	sw	s8,64(sp)
    80003098:	3e8d460b          	.insn	4, 0x3e8d460b
    8000309c:	e89f c077 52e7      	.insn	6, 0x52e7c077e89f
    800030a2:	bffc                	fsd	fa5,248(a5)
    800030a4:	3a58                	fld	fa4,176(a2)
    800030a6:	dc1ebf37          	lui	t5,0xdc1eb
    800030aa:	a83f410f          	.insn	4, 0xa83f410f
    800030ae:	40ee                	lw	ra,216(sp)
    800030b0:	6a7d                	lui	s4,0x1f
    800030b2:	40b8                	lw	a4,64(s1)
    800030b4:	a21d                	j	800031da <input_data+0x2bda>
    800030b6:	c099                	beqz	s1,800030bc <input_data+0x2abc>
    800030b8:	b146                	fsd	fa7,160(sp)
    800030ba:	54adc047          	.insn	4, 0x54adc047
    800030be:	c11e                	sw	t2,128(sp)
    800030c0:	f3e2                	sd	s8,480(sp)
    800030c2:	2b2e411b          	.insn	4, 0x2b2e411b
    800030c6:	c0a6                	sw	s1,64(sp)
    800030c8:	3385                	addiw	t2,t2,-31
    800030ca:	40ce                	lw	ra,208(sp)
    800030cc:	3f4b44b3          	.insn	4, 0x3f4b44b3
    800030d0:	2c8e                	fld	fs9,192(sp)
    800030d2:	c0f2                	sw	t3,64(sp)
    800030d4:	9ea5                	addw	a3,a3,s1
    800030d6:	c0df 0746 3fca      	.insn	6, 0x3fca0746c0df
    800030dc:	f1ac                	sd	a1,96(a1)
    800030de:	40c0                	lw	s0,4(s1)
    800030e0:	8dfc                	.insn	2, 0x8dfc
    800030e2:	4109                	li	sp,2
    800030e4:	2bed                	addiw	s7,s7,27
    800030e6:	c0a1                	beqz	s1,80003126 <input_data+0x2b26>
    800030e8:	0a9a                	slli	s5,s5,0x6
    800030ea:	c118                	sw	a4,0(a0)
    800030ec:	1668                	addi	a0,sp,812
    800030ee:	411c                	lw	a5,0(a0)
    800030f0:	bfa2a78b          	.insn	4, 0xbfa2a78b
    800030f4:	56a1                	li	a3,-24
    800030f6:	76d3c0cf          	.insn	4, 0x76d3c0cf
    800030fa:	b39ac0f7          	.insn	4, 0xb39ac0f7
    800030fe:	bfa6                	fsd	fs1,504(sp)
    80003100:	407de43f 3f3691da 	.insn	8, 0x3f3691da407de43f
    80003108:	0362                	slli	t1,t1,0x18
    8000310a:	ea8140c7          	fmsub.d	ft1,ft2,fs0,ft9,rmm
    8000310e:	6e9d3e6f          	jal	t3,800d6ff6 <_end+0xc5ff6>
    80003112:	c10a                	sw	sp,128(sp)
    80003114:	40e97883          	.insn	4, 0x40e97883
    80003118:	d8d8                	sw	a4,52(s1)
    8000311a:	42b7bfef          	jal	t6,8007ed44 <_end+0x6dd44>
    8000311e:	4101                	li	sp,0
    80003120:	4904                	lw	s1,16(a0)
    80003122:	ff3740bb          	.insn	4, 0xff3740bb
    80003126:	952f3baf          	.insn	4, 0x952f3baf
    8000312a:	40e0                	lw	s0,68(s1)
    8000312c:	48b2                	lw	a7,12(sp)
    8000312e:	4041                	c.li	zero,16
    80003130:	bf88d003          	lhu	zero,-1032(a7)
    80003134:	35c8                	fld	fa0,168(a1)
    80003136:	40d2                	lw	ra,20(sp)
    80003138:	be02c493          	xori	s1,t0,-1056
    8000313c:	bf19713b          	.insn	4, 0xbf19713b
    80003140:	6951                	lui	s2,0x14
    80003142:	c034                	sw	a3,64(s0)
    80003144:	0768                	addi	a0,sp,908
    80003146:	be4c                	fsd	fa1,184(a2)
    80003148:	d541                	beqz	a0,800030d0 <input_data+0x2ad0>
    8000314a:	c089                	beqz	s1,8000314c <input_data+0x2b4c>
    8000314c:	bf18                	fsd	fa4,56(a4)
    8000314e:	9a8d409b          	.insn	4, 0x9a8d409b
    80003152:	c0cd                	beqz	s1,800031f4 <input_data+0x2bf4>
    80003154:	42ea                	lw	t0,152(sp)
    80003156:	40d2                	lw	ra,20(sp)
    80003158:	a62c                	fsd	fa1,72(a2)
    8000315a:	4102                	lw	sp,0(sp)
    8000315c:	3fba7ebf 40deb8b0 	.insn	8, 0x40deb8b03fba7ebf
    80003164:	e621                	bnez	a2,800031ac <input_data+0x2bac>
    80003166:	c055                	beqz	s0,8000320a <input_data+0x2c0a>
    80003168:	f8e4                	sd	s1,240(s1)
    8000316a:	4026                	.insn	2, 0x4026
    8000316c:	ff26                	sd	s1,440(sp)
    8000316e:	c0d1                	beqz	s1,800031f2 <input_data+0x2bf2>
    80003170:	274c                	fld	fa1,136(a4)
    80003172:	c0a5                	beqz	s1,800031d2 <input_data+0x2bd2>
    80003174:	40668e37          	lui	t3,0x40668
    80003178:	e2bd                	bnez	a3,800031de <input_data+0x2bde>
    8000317a:	c024                	sw	s1,64(s0)
    8000317c:	97c0                	.insn	2, 0x97c0
    8000317e:	b264c0c7          	fmsub.d	ft1,fs1,ft6,fs6,rmm
    80003182:	a7eb4003          	lbu	zero,-1410(s6)
    80003186:	c059                	beqz	s0,8000320c <input_data+0x2c0c>
    80003188:	feb9                	bnez	a3,800030e6 <input_data+0x2ae6>
    8000318a:	4058                	lw	a4,4(s0)
    8000318c:	9720                	.insn	2, 0x9720
    8000318e:	40da                	lw	ra,148(sp)
    80003190:	79dd                	lui	s3,0xffff7
    80003192:	4089                	li	ra,2
    80003194:	adf9                	j	80003872 <input_data+0x3272>
    80003196:	c108                	sw	a0,0(a0)
    80003198:	49aa                	lw	s3,136(sp)
    8000319a:	4034                	lw	a3,64(s0)
    8000319c:	403a2e73          	csrrs	t3,0x403,s4
    800031a0:	3f1f 40b9 36d3      	.insn	6, 0x36d340b93f1f
    800031a6:	c114                	sw	a3,0(a0)
    800031a8:	8f80                	.insn	2, 0x8f80
    800031aa:	4119                	li	sp,6
    800031ac:	4096                	lw	ra,68(sp)
    800031ae:	3fd8                	fld	fa4,184(a5)
    800031b0:	2f34                	fld	fa3,88(a4)
    800031b2:	bffd                	j	800031b0 <input_data+0x2bb0>
    800031b4:	c11d0397          	auipc	t2,0xc11d0
    800031b8:	3e64                	fld	fs1,248(a2)
    800031ba:	4000                	lw	s0,0(s0)
    800031bc:	6b44                	ld	s1,144(a4)
    800031be:	3e35                	addiw	t3,t3,-19 # 40667fed <_start-0x3f998013>
    800031c0:	d44a                	sw	s2,40(sp)
    800031c2:	6d833fef          	jal	t6,8003689a <_end+0x2589a>
    800031c6:	c0a1                	beqz	s1,80003206 <input_data+0x2c06>
    800031c8:	b268                	fsd	fa0,224(a2)
    800031ca:	5947bf53          	.insn	4, 0x5947bf53
    800031ce:	24fdbf93          	sltiu	t6,s11,591
    800031d2:	4afbc0d3          	.insn	4, 0x4afbc0d3
    800031d6:	c105                	beqz	a0,800031f6 <input_data+0x2bf6>
    800031d8:	fcf2                	sd	t3,120(sp)
    800031da:	ce09c093          	xori	ra,s3,-800
    800031de:	c111                	beqz	a0,800031e2 <input_data+0x2be2>
    800031e0:	b478                	fsd	fa4,232(s0)
    800031e2:	c0ea                	sw	s10,64(sp)
    800031e4:	c0e794ab          	.insn	4, 0xc0e794ab
    800031e8:	4033285b          	.insn	4, 0x4033285b
    800031ec:	0d65                	addi	s10,s10,25
    800031ee:	4092                	lw	ra,4(sp)
    800031f0:	6139                	addi	sp,sp,448
    800031f2:	3bc2                	fld	fs7,48(sp)
    800031f4:	2071                	.insn	2, 0x2071
    800031f6:	c050                	sw	a2,4(s0)
    800031f8:	48b4                	lw	a3,80(s1)
    800031fa:	718b40ef          	jal	800b7912 <_end+0xa6912>
    800031fe:	c095                	beqz	s1,80003222 <input_data+0x2c22>
    80003200:	aa30                	fsd	fa2,80(a2)
    80003202:	c108                	sw	a0,0(a0)
    80003204:	0c4a                	slli	s8,s8,0x12
    80003206:	40a8                	lw	a0,64(s1)
    80003208:	bd29                	j	80003022 <input_data+0x2a22>
    8000320a:	4118                	lw	a4,0(a0)
    8000320c:	771d                	lui	a4,0xfffe7
    8000320e:	ad88c10f          	.insn	4, 0xad88c10f
    80003212:	40b6                	lw	ra,76(sp)
    80003214:	51cc                	lw	a1,36(a1)
    80003216:	c092                	sw	tp,64(sp)
    80003218:	40c59d97          	auipc	s11,0x40c59
    8000321c:	3f891a97          	auipc	s5,0x3f891
    80003220:	3ea2e0e3          	bltu	t0,a0,80003e00 <input_data+0x3800>
    80003224:	78c4                	ld	s1,176(s1)
    80003226:	3ec5                	addiw	t4,t4,-15
    80003228:	a6c6                	fsd	fa7,328(sp)
    8000322a:	40c6                	lw	ra,80(sp)
    8000322c:	dc1a                	sw	t1,56(sp)
    8000322e:	13454077          	.insn	4, 0x13454077
    80003232:	bf60                	fsd	fs0,248(a4)
    80003234:	bb71                	j	80002fd0 <input_data+0x29d0>
    80003236:	79724113          	xori	sp,tp,1943
    8000323a:	c0e8                	sw	a0,68(s1)
    8000323c:	c0a6f94f          	fnmadd.s	fs2,fa3,fa0,fs8
    80003240:	4057348b          	.insn	4, 0x4057348b
    80003244:	477d                	li	a4,31
    80003246:	c11f fd00 c003      	.insn	6, 0xc003fd00c11f
    8000324c:	37fc                	fld	fa5,232(a5)
    8000324e:	4104                	lw	s1,0(a0)
    80003250:	b38d                	j	80002fb2 <input_data+0x29b2>
    80003252:	f87b4017          	auipc	zero,0xf87b4
    80003256:	3e72                	fld	ft8,312(sp)
    80003258:	965e                	add	a2,a2,s7
    8000325a:	c11f 8c79 c117      	.insn	6, 0xc1178c79c11f
    80003260:	4104acaf          	amoor.w	s9,a6,(s1)
    80003264:	5e94                	lw	a3,56(a3)
    80003266:	c0c6                	sw	a7,64(sp)
    80003268:	4043b1ab          	.insn	4, 0x4043b1ab
    8000326c:	f80a                	sd	sp,48(sp)
    8000326e:	bf19                	j	80003184 <input_data+0x2b84>
    80003270:	3fc244b7          	lui	s1,0x3fc24
    80003274:	128c                	addi	a1,sp,352
    80003276:	3fec                	fld	fa1,248(a5)
    80003278:	c10315ab          	.insn	4, 0xc10315ab
    8000327c:	3505                	addiw	a0,a0,-31 # ffffffffffff0fe1 <_end+0xffffffff7ffdffe1>
    8000327e:	3fbc                	fld	fa5,120(a5)
    80003280:	c7aa                	sw	a0,204(sp)
    80003282:	40c9                	li	ra,18
    80003284:	cd14                	sw	a3,24(a0)
    80003286:	c0ad                	beqz	s1,800032e8 <input_data+0x2ce8>
    80003288:	edfe                	sd	t6,216(sp)
    8000328a:	7ab7c0f7          	.insn	4, 0x7ab7c0f7
    8000328e:	c0fe                	sw	t6,64(sp)
    80003290:	c0cfa8ef          	jal	a7,7fffd69c <_start-0x2964>
    80003294:	4043d87b          	.insn	4, 0x4043d87b
    80003298:	52bd                	li	t0,-17
    8000329a:	c0ba                	sw	a4,64(sp)
    8000329c:	5eaa                	lw	t4,168(sp)
    8000329e:	52004107          	.insn	4, 0x52004107
    800032a2:	4082                	lw	ra,0(sp)
    800032a4:	c08e2b43          	fmadd.s	fs6,ft8,fs0,fs8,rdn
    800032a8:	48c1                	li	a7,16
    800032aa:	c0ed                	beqz	s1,8000338c <input_data+0x2d8c>
    800032ac:	ca92                	sw	tp,84(sp)
    800032ae:	3fb8                	fld	fa4,120(a5)
    800032b0:	597d                	li	s2,-1
    800032b2:	c0e6                	sw	s9,64(sp)
    800032b4:	413a                	lw	sp,140(sp)
    800032b6:	c0ac                	sw	a1,64(s1)
    800032b8:	a6ca                	fsd	fs2,328(sp)
    800032ba:	e33dc03b          	.insn	4, 0xe33dc03b
    800032be:	558fc11b          	.insn	4, 0x558fc11b
    800032c2:	c070                	sw	a2,68(s0)
    800032c4:	ce38                	sw	a4,88(a2)
    800032c6:	c10d                	beqz	a0,800032e8 <input_data+0x2ce8>
    800032c8:	be9d338f          	.insn	4, 0xbe9d338f
    800032cc:	b5fa                	fsd	ft10,232(sp)
    800032ce:	405d                	c.li	zero,23
    800032d0:	ac75                	j	8000358c <input_data+0x2f8c>
    800032d2:	3ff6                	fld	ft11,376(sp)
    800032d4:	49c0                	lw	s0,20(a1)
    800032d6:	625bc117          	auipc	sp,0x625bc
    800032da:	4115                	li	sp,5
    800032dc:	5309                	li	t1,-30
    800032de:	406a                	.insn	2, 0x406a
    800032e0:	c00c8317          	auipc	t1,0xc00c8
    800032e4:	eb6c                	sd	a1,208(a4)
    800032e6:	85713feb          	.insn	4, 0x85713feb
    800032ea:	40d5                	li	ra,21
    800032ec:	c8a8                	sw	a0,80(s1)
    800032ee:	bf1640db          	.insn	4, 0xbf1640db
    800032f2:	be69                	j	80002e8c <input_data+0x288c>
    800032f4:	def8                	sw	a4,124(a3)
    800032f6:	411f b587 4117      	.insn	6, 0x4117b587411f
    800032fc:	76b4                	ld	a3,104(a3)
    800032fe:	6ef8bfbf 1991c0db 	.insn	8, 0x1991c0db6ef8bfbf
    80003306:	c112                	sw	tp,128(sp)
    80003308:	40ae20c3          	fmadd.s	ft1,ft8,fa0,fs0,rdn
    8000330c:	40fba9e7          	.insn	4, 0x40fba9e7
    80003310:	40b2eab3          	.insn	4, 0x40b2eab3
    80003314:	6c61                	lui	s8,0x18
    80003316:	4020                	lw	s0,64(s0)
    80003318:	7cfd                	lui	s9,0xfffff
    8000331a:	d66f4117          	auipc	sp,0xd66f4
    8000331e:	c112                	sw	tp,128(sp)
    80003320:	e362                	sd	s8,384(sp)
    80003322:	4106                	lw	sp,64(sp)
    80003324:	377a                	fld	fa4,440(sp)
    80003326:	4005                	c.li	zero,1
    80003328:	3a5c                	fld	fa5,176(a2)
    8000332a:	403d                	c.li	zero,15
    8000332c:	029f 3e60 3506      	.insn	6, 0x35063e60029f
    80003332:	18a8410f          	.insn	4, 0x18a8410f
    80003336:	c01f 86b7 c10a      	.insn	6, 0xc10a86b7c01f
    8000333c:	100e                	c.slli	zero,0x23
    8000333e:	c084                	sw	s1,0(s1)
    80003340:	9735                	srai	a4,a4,0x2d
    80003342:	c074                	sw	a3,68(s0)
    80003344:	1f19                	addi	t5,t5,-26 # ffffffffdc1eafe6 <_end+0xffffffff5c1d9fe6>
    80003346:	5f224093          	xori	ra,tp,1522
    8000334a:	c0be                	sw	a5,64(sp)
    8000334c:	c0fd744b          	fnmsub.s	fs0,fs10,fa5,fs8
    80003350:	2724                	fld	fs1,72(a4)
    80003352:	bf9d                	j	800032c8 <input_data+0x2cc8>
    80003354:	4f4c                	lw	a1,28(a4)
    80003356:	beb8                	fsd	fa4,120(a3)
    80003358:	a26c                	fsd	fa1,192(a2)
    8000335a:	cb8a4093          	xori	ra,s4,-840
    8000335e:	c0f0                	sw	a2,68(s1)
    80003360:	52b8                	lw	a4,96(a3)
    80003362:	4105                	li	sp,1
    80003364:	a440                	fsd	fs0,136(s0)
    80003366:	3f81                	addiw	t6,t6,-32 # ffffffff93542fe0 <_end+0xffffffff13531fe0>
    80003368:	3e0c                	fld	fa1,56(a2)
    8000336a:	621b4087          	.insn	4, 0x621b4087
    8000336e:	3fdc                	fld	fa5,184(a5)
    80003370:	c6d2                	sw	s4,76(sp)
    80003372:	d231c0e7          	.insn	4, 0xd231c0e7
    80003376:	c095                	beqz	s1,8000339a <input_data+0x2d9a>
    80003378:	c546                	sw	a7,136(sp)
    8000337a:	435b40a7          	.insn	4, 0x435b40a7
    8000337e:	3815bf8b          	.insn	4, 0x3815bf8b
    80003382:	c11e                	sw	t2,128(sp)
    80003384:	1596                	slli	a1,a1,0x25
    80003386:	c0f5                	beqz	s1,8000346a <input_data+0x2e6a>
    80003388:	c726                	sw	s1,140(sp)
    8000338a:	40c0                	lw	s0,4(s1)
    8000338c:	c0927147          	fmsub.s	ft2,ft4,fs1,fs8
    80003390:	3f73ff47          	.insn	4, 0x3f73ff47
    80003394:	92c9                	srli	a3,a3,0x32
    80003396:	c0f6                	sw	t4,64(sp)
    80003398:	b4d2                	fsd	fs4,104(sp)
    8000339a:	40c9                	li	ra,18
    8000339c:	c11098db          	.insn	4, 0xc11098db
    800033a0:	484d                	li	a6,19
    800033a2:	4098                	lw	a4,0(s1)
    800033a4:	40a26f0b          	.insn	4, 0x40a26f0b
    800033a8:	d56d                	beqz	a0,80003392 <input_data+0x2d92>
    800033aa:	4100                	lw	s0,0(a0)
    800033ac:	aad2                	fsd	fs4,336(sp)
    800033ae:	3f7e                	fld	ft10,504(sp)
    800033b0:	beb72607          	flw	fa2,-1045(a4) # fffffffffffe6beb <_end+0xffffffff7ffd5beb>
    800033b4:	7165                	addi	sp,sp,-400
    800033b6:	c03c                	sw	a5,64(s0)
    800033b8:	c10f9fab          	.insn	4, 0xc10f9fab
    800033bc:	ffd0                	sd	a2,184(a5)
    800033be:	40b2                	lw	ra,12(sp)
    800033c0:	40b2127f c0a3f91a 	.insn	12, 0xc0df72c5c0a3f91a40b2127f
    800033c8:	c0df72c5 
    800033cc:	4340                	lw	s0,4(a4)
    800033ce:	40d8                	lw	a4,4(s1)
    800033d0:	3672                	fld	fa2,312(sp)
    800033d2:	bf6d                	j	8000338c <input_data+0x2d8c>
    800033d4:	1fb2                	slli	t6,t6,0x2c
    800033d6:	40aa                	lw	ra,136(sp)
    800033d8:	b628                	fsd	fa0,104(a2)
    800033da:	3f66                	fld	ft10,120(sp)
    800033dc:	bf6d6de3          	bltu	s10,s6,80002fd6 <input_data+0x29d6>
    800033e0:	c0926847          	fmsub.s	fa6,ft4,fs1,fs8,unknown
    800033e4:	c619                	beqz	a2,800033f2 <input_data+0x2df2>
    800033e6:	bf79                	j	80003384 <input_data+0x2d84>
    800033e8:	fa48                	sd	a0,176(a2)
    800033ea:	40fd                	li	ra,31
    800033ec:	5c66                	lw	s8,120(sp)
    800033ee:	c0f6                	sw	t4,64(sp)
    800033f0:	dc44                	sw	s1,60(s0)
    800033f2:	c0b5                	beqz	s1,80003456 <input_data+0x2e56>
    800033f4:	bf8f5853          	.insn	4, 0xbf8f5853
    800033f8:	1e7e                	slli	t3,t3,0x3f
    800033fa:	406a                	.insn	2, 0x406a
    800033fc:	a7b9                	j	80003b4a <input_data+0x354a>
    800033fe:	b19dc027          	.insn	4, 0xb19dc027
    80003402:	4110                	lw	a2,0(a0)
    80003404:	0c5d                	addi	s8,s8,23 # 18017 <_start-0x7ffe7fe9>
    80003406:	c0ca                	sw	s2,64(sp)
    80003408:	c07603ef          	jal	t2,7ff6400e <_start-0x9bff2>
    8000340c:	bc30                	fsd	fa2,120(s0)
    8000340e:	c020                	sw	s0,64(s0)
    80003410:	a61e                	fsd	ft7,264(sp)
    80003412:	4105                	li	sp,1
    80003414:	e2fc                	sd	a5,192(a3)
    80003416:	4024                	lw	s1,64(s0)
    80003418:	4e80                	lw	s0,24(a3)
    8000341a:	410d                	li	sp,3
    8000341c:	de6e                	sw	s11,60(sp)
    8000341e:	4119                	li	sp,6
    80003420:	c118b273          	csrrc	tp,hpmcounter17,a7
    80003424:	cd68                	sw	a0,92(a0)
    80003426:	a2adbfbb          	.insn	4, 0xa2adbfbb
    8000342a:	bfbd                	j	800033a8 <input_data+0x2da8>
    8000342c:	e786                	sd	ra,456(sp)
    8000342e:	40b6                	lw	ra,76(sp)
    80003430:	40073cf7          	.insn	4, 0x40073cf7
    80003434:	c0db3b7b          	.insn	4, 0xc0db3b7b
    80003438:	2a9d                	addiw	s5,s5,7 # ffffffffbf894223 <_end+0xffffffff3f883223>
    8000343a:	403c                	lw	a5,64(s0)
    8000343c:	40dac363          	blt	s5,a3,80003842 <input_data+0x3242>
    80003440:	0275                	addi	tp,tp,29 # 1d <_start-0x7fffffe3>
    80003442:	3ee2                	fld	ft9,56(sp)
    80003444:	9d0a                	add	s10,s10,sp
    80003446:	b62240b7          	lui	ra,0xb6224
    8000344a:	c082                	sw	zero,64(sp)
    8000344c:	0f39                	addi	t5,t5,14
    8000344e:	3ff9                	addiw	t6,t6,-2
    80003450:	18b9                	addi	a7,a7,-18
    80003452:	c0ac                	sw	a1,64(s1)
    80003454:	9bf9                	andi	a5,a5,-2
    80003456:	4109                	li	sp,2
    80003458:	409764cb          	fnmsub.s	fs1,fa4,fs1,fs0,unknown
    8000345c:	2c62                	fld	fs8,24(sp)
    8000345e:	c09c                	sw	a5,0(s1)
    80003460:	bfc154eb          	.insn	4, 0xbfc154eb
    80003464:	0455                	addi	s0,s0,21 # 15015 <_start-0x7ffeafeb>
    80003466:	ecd0c0b7          	lui	ra,0xecd0c
    8000346a:	405c                	lw	a5,4(s0)
    8000346c:	40b1774f          	fnmadd.s	fa4,ft2,fa1,fs0
    80003470:	3d653c9b          	.insn	4, 0x3d653c9b
    80003474:	fe59                	bnez	a2,80003412 <input_data+0x2e12>
    80003476:	4102                	lw	sp,0(sp)
    80003478:	b595                	j	800032dc <input_data+0x2cdc>
    8000347a:	ffb2bf9b          	.insn	4, 0xffb2bf9b
    8000347e:	c0ba                	sw	a4,64(sp)
    80003480:	f0e1                	bnez	s1,80003440 <input_data+0x2e40>
    80003482:	be62                	fsd	fs8,312(sp)
    80003484:	c096803b          	.insn	4, 0xc096803b
    80003488:	7f00                	ld	s0,56(a4)
    8000348a:	ade240fb          	.insn	4, 0xade240fb
    8000348e:	bfd9                	j	80003464 <input_data+0x2e64>
    80003490:	bffe3633          	.insn	4, 0xbffe3633
    80003494:	b848                	fsd	fa0,176(s0)
    80003496:	410a                	lw	sp,128(sp)
    80003498:	88f0                	.insn	2, 0x88f0
    8000349a:	c050                	sw	a2,4(s0)
    8000349c:	c450                	sw	a2,12(s0)
    8000349e:	bff2                	fsd	ft8,504(sp)
    800034a0:	8238                	.insn	2, 0x8238
    800034a2:	3ebc                	fld	fa5,120(a3)
    800034a4:	8549                	srai	a0,a0,0x12
    800034a6:	409d                	li	ra,7
    800034a8:	4c66                	lw	s8,88(sp)
    800034aa:	07ec4087          	.insn	4, 0x07ec4087
    800034ae:	40ac                	lw	a1,64(s1)
    800034b0:	e4da                	sd	s6,72(sp)
    800034b2:	4075                	c.li	zero,29
    800034b4:	7e35                	lui	t3,0xfffed
    800034b6:	3f09                	addiw	t5,t5,-30
    800034b8:	a8dd                	j	800035ae <input_data+0x2fae>
    800034ba:	d20640eb          	.insn	4, 0xd20640eb
    800034be:	c11c                	sw	a5,0(a0)
    800034c0:	c0fa3abf 411bf82f 	.insn	8, 0x411bf82fc0fa3abf
    800034c8:	40c5c5e7          	.insn	4, 0x40c5c5e7
    800034cc:	d8e0                	sw	s0,116(s1)
    800034ce:	70d4c043          	fmadd.s	ft0,fs1,fa3,fa4,rmm
    800034d2:	40f4                	lw	a3,68(s1)
    800034d4:	625a                	ld	tp,400(sp)
    800034d6:	bfc5                	j	800034c6 <input_data+0x2ec6>
    800034d8:	b338                	fsd	fa4,96(a4)
    800034da:	c10a                	sw	sp,128(sp)
    800034dc:	3ff3c4eb          	.insn	4, 0x3ff3c4eb
    800034e0:	f972                	sd	t3,176(sp)
    800034e2:	c086                	sw	ra,64(sp)
    800034e4:	40ca5a77          	.insn	4, 0x40ca5a77
    800034e8:	40bb9353          	.insn	4, 0x40bb9353
    800034ec:	e4a8                	sd	a0,72(s1)
    800034ee:	c064                	sw	s1,68(s0)
    800034f0:	3034                	fld	fa3,96(s0)
    800034f2:	3f32                	fld	ft10,296(sp)
    800034f4:	2d28                	fld	fa0,88(a0)
    800034f6:	4119                	li	sp,6
    800034f8:	ffde                	sd	s7,504(sp)
    800034fa:	404c                	lw	a1,4(s0)
    800034fc:	3f8c3d57          	vslidedown.vi	v26,v24,24
    80003500:	66e4                	ld	s1,200(a3)
    80003502:	3fcc                	fld	fa1,184(a5)
    80003504:	3ebb543b          	.insn	4, 0x3ebb543b
    80003508:	7266                	ld	tp,120(sp)
    8000350a:	4106                	lw	sp,64(sp)
    8000350c:	d68c                	sw	a1,40(a3)
    8000350e:	7e91406f          	j	800184f6 <_end+0x74f6>
    80003512:	bfdf 22e9 4102      	.insn	6, 0x410222e9bfdf
    80003518:	c35d                	beqz	a4,800035be <input_data+0x2fbe>
    8000351a:	c048                	sw	a0,4(s0)
    8000351c:	c0ef24af          	amominu.w	s1,a4,(t5)
    80003520:	f284                	sd	s1,32(a3)
    80003522:	be6e                	fsd	fs11,312(sp)
    80003524:	5a86                	lw	s5,96(sp)
    80003526:	40be                	lw	ra,204(sp)
    80003528:	6d0d                	lui	s10,0x3
    8000352a:	838a40e3          	blt	s4,s8,80002d4a <input_data+0x274a>
    8000352e:	4114                	lw	a3,0(a0)
    80003530:	4094422b          	.insn	4, 0x4094422b
    80003534:	c09d7933          	.insn	4, 0xc09d7933
    80003538:	4aba                	lw	s5,140(sp)
    8000353a:	2a2c3ffb          	.insn	4, 0x2a2c3ffb
    8000353e:	4068                	lw	a0,68(s0)
    80003540:	7c81                	lui	s9,0xfffe0
    80003542:	40ce                	lw	ra,208(sp)
    80003544:	3125                	addiw	sp,sp,-23 # 566f7303 <_start-0x29908cfd>
    80003546:	c0b2                	sw	a2,64(sp)
    80003548:	b160                	fsd	fs0,224(a0)
    8000354a:	c0ce                	sw	s3,64(sp)
    8000354c:	98cc                	.insn	2, 0x98cc
    8000354e:	c070                	sw	a2,68(s0)
    80003550:	69b4                	ld	a3,80(a1)
    80003552:	40a8                	lw	a0,64(s1)
    80003554:	1106                	slli	sp,sp,0x21
    80003556:	c084                	sw	s1,0(s1)
    80003558:	f291                	bnez	a3,8000345c <input_data+0x2e5c>
    8000355a:	b6bb3efb          	.insn	4, 0xb6bb3efb
    8000355e:	0facbfe7          	.insn	4, 0x0facbfe7
    80003562:	5300c0b7          	lui	ra,0x5300c
    80003566:	bfac                	fsd	fa1,120(a5)
    80003568:	52f9                	li	t0,-2
    8000356a:	4101                	li	sp,0
    8000356c:	bfb0044b          	.insn	4, 0xbfb0044b
    80003570:	8a02                	jr	s4
    80003572:	411e                	lw	sp,196(sp)
    80003574:	95c0                	.insn	2, 0x95c0
    80003576:	408d                	li	ra,3
    80003578:	6a1a                	ld	s4,384(sp)
    8000357a:	c04d                	beqz	s0,8000361c <input_data+0x301c>
    8000357c:	bb58                	fsd	fa4,176(a4)
    8000357e:	c0f9                	beqz	s1,80003644 <input_data+0x3044>
    80003580:	ecc8                	sd	a0,152(s1)
    80003582:	406e                	.insn	2, 0x406e
    80003584:	48b6                	lw	a7,76(sp)
    80003586:	c0ee                	sw	s11,64(sp)
    80003588:	c00ec22b          	.insn	4, 0xc00ec22b
    8000358c:	0b85                	addi	s7,s7,1
    8000358e:	40ec                	lw	a1,68(s1)
    80003590:	976e                	add	a4,a4,s11
    80003592:	c081                	beqz	s1,80003592 <input_data+0x2f92>
    80003594:	403c36e7          	.insn	4, 0x403c36e7
    80003598:	060c                	addi	a1,sp,768
    8000359a:	c116                	sw	t0,128(sp)
    8000359c:	1202                	slli	tp,tp,0x20
    8000359e:	c100                	sw	s0,0(a0)
    800035a0:	fddf c02d 85cf      	.insn	6, 0x85cfc02dfddf
    800035a6:	75043f8f          	.insn	4, 0x75043f8f
    800035aa:	bf4e                	fsd	fs3,440(sp)
    800035ac:	4fe8                	lw	a0,92(a5)
    800035ae:	c66d40c3          	.insn	4, 0xc66d40c3
    800035b2:	4060                	lw	s0,68(s0)
    800035b4:	2a58                	fld	fa4,144(a2)
    800035b6:	c0ff 1334 bdac f956 	.insn	18, 0x3e8338934077a09d410bf956bdac1334c0ff
    800035be:	410b a09d 4077 3893 
    800035c6:	3e83 
    800035c8:	fa4d                	bnez	a2,8000357a <input_data+0x2f7a>
    800035ca:	4118                	lw	a4,0(a0)
    800035cc:	c422                	sw	s0,8(sp)
    800035ce:	4055                	c.li	zero,21
    800035d0:	2fc9                	addiw	t6,t6,18
    800035d2:	40ec                	lw	a1,68(s1)
    800035d4:	322d                	addiw	tp,tp,-21 # ffffffffffffffeb <_end+0xffffffff7ffeefeb>
    800035d6:	c09f 3aeb 407e      	.insn	6, 0x407e3aebc09f
    800035dc:	409dfc83          	.insn	4, 0x409dfc83
    800035e0:	40371223          	sh	gp,1028(a4)
    800035e4:	52f0                	lw	a2,100(a3)
    800035e6:	403e                	.insn	2, 0x403e
    800035e8:	c100fbf3          	csrrci	s7,hpmcounter16,1
    800035ec:	3f7e6677          	.insn	4, 0x3f7e6677
    800035f0:	057f 4090 17ad c0fb 	.insn	10, 0xbf03c0fb17ad4090057f
    800035f8:	bf03 
    800035fa:	c11e                	sw	t2,128(sp)
    800035fc:	5b08                	lw	a0,48(a4)
    800035fe:	c05d                	beqz	s0,800036a4 <input_data+0x30a4>
    80003600:	2d5e                	fld	fs10,464(sp)
    80003602:	c022                	sw	s0,0(sp)
    80003604:	1a7e                	slli	s4,s4,0x3f
    80003606:	4070                	lw	a2,68(s0)
    80003608:	0c65                	addi	s8,s8,25
    8000360a:	4089                	li	ra,2
    8000360c:	411236e3          	.insn	4, 0x411236e3
    80003610:	afff 40e5 11f9 3fed 	.insn	14, 0x10e93ef2f35e3fed11f940e5afff
    80003618:	f35e 3ef2 10e9 
    8000361e:	c0b8                	sw	a4,64(s1)
    80003620:	7c6c                	ld	a1,248(s0)
    80003622:	4034                	lw	a3,64(s0)
    80003624:	41043263          	.insn	4, 0x41043263
    80003628:	3615                	addiw	a2,a2,-27 # 1bfe5 <_start-0x7ffe401b>
    8000362a:	bfc9                	j	800035fc <input_data+0x2ffc>
    8000362c:	3ff6                	fld	ft11,376(sp)
    8000362e:	c109                	beqz	a0,80003630 <input_data+0x3030>
    80003630:	b164                	fsd	fs1,224(a0)
    80003632:	768840bf ddf2c0a4 	.insn	8, 0xddf2c0a4768840bf
    8000363a:	c0fe                	sw	t6,64(sp)
    8000363c:	b9b6                	fsd	fa3,240(sp)
    8000363e:	8039c0eb          	.insn	4, 0x8039c0eb
    80003642:	c0d1                	beqz	s1,800036c6 <input_data+0x30c6>
    80003644:	409c0b2f          	.insn	4, 0x409c0b2f
    80003648:	66b6                	ld	a3,328(sp)
    8000364a:	bb9e3faf          	.insn	4, 0xbb9e3faf
    8000364e:	86b6411b          	.insn	4, 0x86b6411b
    80003652:	bfc6                	fsd	fa7,504(sp)
    80003654:	558a                	lw	a1,160(sp)
    80003656:	566940c7          	.insn	4, 0x566940c7
    8000365a:	fb40c03b          	.insn	4, 0xfb40c03b
    8000365e:	c020                	sw	s0,64(s0)
    80003660:	c0696577          	.insn	4, 0xc0696577
    80003664:	5a18                	lw	a4,48(a2)
    80003666:	c0c2                	sw	a6,64(sp)
    80003668:	351c                	fld	fa5,40(a0)
    8000366a:	40cd                	li	ra,19
    8000366c:	3f38636b          	.insn	4, 0x3f38636b
    80003670:	2b49                	addiw	s6,s6,18
    80003672:	3f86                	fld	ft11,96(sp)
    80003674:	5e20                	lw	s0,120(a2)
    80003676:	40ae                	lw	ra,200(sp)
    80003678:	54f1                	li	s1,-4
    8000367a:	eacd40b7          	lui	ra,0xeacd4
    8000367e:	c0c5                	beqz	s1,8000371e <input_data+0x311e>
    80003680:	7f2c                	ld	a1,120(a4)
    80003682:	3fcc                	fld	fa1,184(a5)
    80003684:	aaba                	fsd	fa4,336(sp)
    80003686:	410c                	lw	a1,0(a0)
    80003688:	5d89                	li	s11,-30
    8000368a:	c0fe                	sw	t6,64(sp)
    8000368c:	4104476f          	jal	a4,80047a9c <_end+0x36a9c>
    80003690:	96c2                	add	a3,a3,a6
    80003692:	c0fa                	sw	t5,64(sp)
    80003694:	941d                	srai	s0,s0,0x27
    80003696:	c024                	sw	s1,64(s0)
    80003698:	36d6                	fld	fa3,368(sp)
    8000369a:	40d6                	lw	ra,84(sp)
    8000369c:	0fd8                	addi	a4,sp,980
    8000369e:	bec1                	j	8000326e <input_data+0x2c6e>
    800036a0:	d462                	sw	s8,40(sp)
    800036a2:	410d                	li	sp,3
    800036a4:	06f4                	addi	a3,sp,844
    800036a6:	c084                	sw	s1,0(s1)
    800036a8:	ee24                	sd	s1,88(a2)
    800036aa:	bdb1                	j	80003506 <input_data+0x2f06>
    800036ac:	1412                	slli	s0,s0,0x24
    800036ae:	bf89                	j	80003600 <input_data+0x3000>
    800036b0:	d0f2                	sw	t3,96(sp)
    800036b2:	266ac05b          	.insn	4, 0x266ac05b
    800036b6:	f423c0eb          	.insn	4, 0xf423c0eb
    800036ba:	dffa4003          	lbu	zero,-513(s4) # 1edff <_start-0x7ffe1201>
    800036be:	40e5                	li	ra,25
    800036c0:	cec4                	sw	s1,28(a3)
    800036c2:	bf30                	fsd	fa2,120(a4)
    800036c4:	f89c                	sd	a5,48(s1)
    800036c6:	c055                	beqz	s0,8000376a <input_data+0x316a>
    800036c8:	c0174163          	blt	a4,ra,80002aca <input_data+0x24ca>
    800036cc:	3e52107b          	.insn	4, 0x3e52107b
    800036d0:	c03a7d6b          	.insn	4, 0xc03a7d6b
    800036d4:	c022d6c7          	fmsub.s	fa3,ft5,ft2,fs8,unknown
    800036d8:	7aca                	ld	s5,176(sp)
    800036da:	903fc107          	.insn	4, 0x903fc107
    800036de:	404e                	.insn	2, 0x404e
    800036e0:	f5a5                	bnez	a1,80003648 <input_data+0x3048>
    800036e2:	40c6                	lw	ra,80(sp)
    800036e4:	6bba                	ld	s7,392(sp)
    800036e6:	3ee9                	addiw	t4,t4,-6
    800036e8:	bf30903f c0a9f377 	.insn	8, 0xc0a9f377bf30903f
    800036f0:	1de0                	addi	s0,sp,764
    800036f2:	40a8                	lw	a0,64(s1)
    800036f4:	c1141837          	lui	a6,0xc1141
    800036f8:	4dbe                	lw	s11,204(sp)
    800036fa:	40c2                	lw	ra,16(sp)
    800036fc:	02cd                	addi	t0,t0,19
    800036fe:	410d                	li	sp,3
    80003700:	a9c1                	j	80003bd0 <input_data+0x35d0>
    80003702:	c085                	beqz	s1,80003722 <input_data+0x3122>
    80003704:	c0d8d773          	csrrwi	a4,hpmcounter13,17
    80003708:	e225                	bnez	a2,80003768 <input_data+0x3168>
    8000370a:	287cc103          	lbu	sp,647(s9) # fffffffffffe0287 <_end+0xffffffff7ffcf287>
    8000370e:	be71                	j	800032aa <input_data+0x2caa>
    80003710:	bff2                	fsd	ft8,504(sp)
    80003712:	ebdd40ab          	.insn	4, 0xebdd40ab
    80003716:	401a                	.insn	2, 0x401a
    80003718:	88a0                	.insn	2, 0x88a0
    8000371a:	4041                	c.li	zero,16
    8000371c:	dfce                	sw	s3,252(sp)
    8000371e:	3fe4                	fld	fs1,248(a5)
    80003720:	c0df7703          	.insn	4, 0xc0df7703
    80003724:	5c42                	lw	s8,48(sp)
    80003726:	40f8                	lw	a4,68(s1)
    80003728:	f534                	sd	a3,104(a0)
    8000372a:	4002                	.insn	2, 0x4002
    8000372c:	f2aa                	sd	a0,352(sp)
    8000372e:	c0d9                	beqz	s1,800037b4 <input_data+0x31b4>
    80003730:	2c72                	fld	fs8,280(sp)
    80003732:	4109                	li	sp,2
    80003734:	012e                	slli	sp,sp,0xb
    80003736:	3ea8                	fld	fa0,120(a3)
    80003738:	43a6                	lw	t2,72(sp)
    8000373a:	7202c0b3          	.insn	4, 0x7202c0b3
    8000373e:	dd2740a7          	.insn	4, 0xdd2740a7
    80003742:	4072                	.insn	2, 0x4072
    80003744:	89c0                	.insn	2, 0x89c0
    80003746:	40f2                	lw	ra,28(sp)
    80003748:	c0aafdb7          	lui	s11,0xc0aaf
    8000374c:	4340                	lw	s0,4(a4)
    8000374e:	40b1                	li	ra,12
    80003750:	405f4867          	.insn	4, 0x405f4867
    80003754:	48f5                	li	a7,29
    80003756:	5c293f17          	auipc	t5,0x5c293
    8000375a:	40c5                	li	ra,17
    8000375c:	c0bdc25b          	.insn	4, 0xc0bdc25b
    80003760:	e2ac                	sd	a1,64(a3)
    80003762:	c066c063          	blt	a3,t1,80002b62 <input_data+0x2562>
    80003766:	40de                	lw	ra,212(sp)
    80003768:	c0d1c42f          	.insn	4, 0xc0d1c42f
    8000376c:	40963aa3          	sd	s1,1045(a2)
    80003770:	4061bccb          	fnmsub.s	fs9,ft3,ft6,fs0,rup
    80003774:	03c0                	addi	s0,sp,452
    80003776:	26183fcf          	.insn	4, 0x26183fcf
    8000377a:	c0d2                	sw	s4,64(sp)
    8000377c:	912e                	add	sp,sp,a1
    8000377e:	476dbdeb          	.insn	4, 0x476dbdeb
    80003782:	0974c11b          	.insn	4, 0x0974c11b
    80003786:	4bb4bfab          	.insn	4, 0x4bb4bfab
    8000378a:	fc59c08b          	.insn	4, 0xfc59c08b
    8000378e:	bfe6                	fsd	fs9,504(sp)
    80003790:	40683d4b          	fnmsub.s	fs10,fa6,ft6,fs0,rup
    80003794:	db7d                	beqz	a4,8000378a <input_data+0x318a>
    80003796:	0b5b4083          	lbu	ra,181(s6)
    8000379a:	c0f4                	sw	a3,68(s1)
    8000379c:	8512                	mv	a0,tp
    8000379e:	4079                	c.li	zero,30
    800037a0:	41090b2f          	.insn	4, 0x41090b2f
    800037a4:	4b10                	lw	a2,16(a4)
    800037a6:	4090                	lw	a2,0(s1)
    800037a8:	8399                	srli	a5,a5,0x6
    800037aa:	3fe4                	fld	fs1,248(a5)
    800037ac:	45fa                	lw	a1,156(sp)
    800037ae:	c005                	beqz	s0,800037ce <input_data+0x31ce>
    800037b0:	b320                	fsd	fs0,96(a4)
    800037b2:	88ce3e43          	fmadd.s	ft8,ft8,fa2,fa7,rup
    800037b6:	be9a                	fsd	ft6,376(sp)
    800037b8:	f740                	sd	s0,168(a4)
    800037ba:	be05                	j	800032ea <input_data+0x2cea>
    800037bc:	e7b0                	sd	a2,72(a5)
    800037be:	3fb9                	addiw	t6,t6,-18
    800037c0:	f7cd                	bnez	a5,8000376a <input_data+0x316a>
    800037c2:	411a                	lw	sp,132(sp)
    800037c4:	1eac                	addi	a1,sp,888
    800037c6:	c0b9                	beqz	s1,8000380c <input_data+0x320c>
    800037c8:	890d                	andi	a0,a0,3
    800037ca:	c065                	beqz	s0,800038aa <input_data+0x32aa>
    800037cc:	3754                	fld	fa3,168(a4)
    800037ce:	40ca                	lw	ra,144(sp)
    800037d0:	c0db026b          	.insn	4, 0xc0db026b
    800037d4:	74d6                	ld	s1,368(sp)
    800037d6:	c10a                	sw	sp,128(sp)
    800037d8:	c0fe6af7          	.insn	4, 0xc0fe6af7
    800037dc:	bf20d877          	.insn	4, 0xbf20d877
    800037e0:	8b11                	andi	a4,a4,4
    800037e2:	4071                	c.li	zero,28
    800037e4:	a861                	j	8000387c <input_data+0x327c>
    800037e6:	d0bbbf83          	ld	t6,-757(s7)
    800037ea:	40a8                	lw	a0,64(s1)
    800037ec:	c832                	sw	a2,16(sp)
    800037ee:	4052                	.insn	2, 0x4052
    800037f0:	af60                	fsd	fs0,216(a4)
    800037f2:	bfd6                	fsd	fs5,504(sp)
    800037f4:	4007f8d3          	.insn	4, 0x4007f8d3
    800037f8:	e81d                	bnez	s0,8000382e <input_data+0x322e>
    800037fa:	bfb1                	j	80003756 <input_data+0x3156>
    800037fc:	3928                	fld	fa0,112(a0)
    800037fe:	c0d6                	sw	s5,64(sp)
    80003800:	40bd6883          	lwu	a7,1035(s10) # 340b <_start-0x7fffcbf5>
    80003804:	7b78                	ld	a4,240(a4)
    80003806:	bf8a                	fsd	ft2,504(sp)
    80003808:	18f0                	addi	a2,sp,124
    8000380a:	c048                	sw	a0,4(s0)
    8000380c:	31c4                	fld	fs1,160(a1)
    8000380e:	40be                	lw	ra,204(sp)
    80003810:	3bac                	fld	fa1,112(a5)
    80003812:	c034                	sw	a3,64(s0)
    80003814:	3f0ededb          	.insn	4, 0x3f0ededb
    80003818:	73a8                	ld	a0,96(a5)
    8000381a:	4002                	.insn	2, 0x4002
    8000381c:	410ca607          	flw	fa2,1040(s9)
    80003820:	83ae                	mv	t2,a1
    80003822:	c112                	sw	tp,128(sp)
    80003824:	234e                	fld	ft6,208(sp)
    80003826:	411f 8677 c0bc      	.insn	6, 0xc0bc8677411f
    8000382c:	c10e5833          	.insn	4, 0xc10e5833
    80003830:	e06e                	sd	s11,0(sp)
    80003832:	bfba                	fsd	fa4,504(sp)
    80003834:	408e2027          	fsw	fs0,1024(t3) # fffffffffffed400 <_end+0xffffffff7ffdc400>
    80003838:	da94                	sw	a3,48(a3)
    8000383a:	c01f 7935 402a      	.insn	6, 0x402a7935c01f
    80003840:	e9fc                	sd	a5,208(a1)
    80003842:	c118                	sw	a4,0(a0)
    80003844:	2036                	fld	ft0,328(sp)
    80003846:	3f3e                	fld	ft10,488(sp)
    80003848:	6392                	ld	t2,256(sp)
    8000384a:	776cc117          	auipc	sp,0x776cc
    8000384e:	c090                	sw	a2,0(s1)
    80003850:	ce64                	sw	s1,92(a2)
    80003852:	401a                	.insn	2, 0x401a
    80003854:	f7e0                	sd	s0,232(a5)
    80003856:	03a33f4f          	fnmadd.d	ft10,ft6,fs10,ft0,rup
    8000385a:	3f52                	fld	ft10,304(sp)
    8000385c:	c0ac7c87          	.insn	4, 0xc0ac7c87
    80003860:	1c24                	addi	s1,sp,568
    80003862:	c09e                	sw	t2,64(sp)
    80003864:	ad6d                	j	80003f1e <input_data+0x391e>
    80003866:	40e6                	lw	ra,88(sp)
    80003868:	9c78                	.insn	2, 0x9c78
    8000386a:	409e                	lw	ra,196(sp)
    8000386c:	b25d                	j	80003212 <input_data+0x2c12>
    8000386e:	40a0                	lw	s0,64(s1)
    80003870:	983d                	andi	s0,s0,-17
    80003872:	c115                	beqz	a0,80003896 <input_data+0x3296>
    80003874:	4080a287          	flw	ft5,1032(ra) # ffffffffeacd4408 <_end+0xffffffff6acc3408>
    80003878:	691c                	ld	a5,16(a0)
    8000387a:	c106                	sw	ra,128(sp)
    8000387c:	0ee5                	addi	t4,t4,25
    8000387e:	c044                	sw	s1,4(s0)
    80003880:	ba6a                	fsd	fs10,304(sp)
    80003882:	4102                	lw	sp,0(sp)
    80003884:	e426                	sd	s1,8(sp)
    80003886:	40d0                	lw	a2,4(s1)
    80003888:	68c9                	lui	a7,0x12
    8000388a:	7d2640fb          	.insn	4, 0x7d2640fb
    8000388e:	c081                	beqz	s1,8000388e <input_data+0x328e>
    80003890:	559f c078 9629      	.insn	6, 0x9629c078559f
    80003896:	4009                	c.li	zero,2
    80003898:	6d48                	ld	a0,152(a0)
    8000389a:	c09e                	sw	t2,64(sp)
    8000389c:	c077d307          	.insn	4, 0xc077d307
    800038a0:	a956                	fsd	fs5,144(sp)
    800038a2:	c0b6                	sw	a3,64(sp)
    800038a4:	1e60                	addi	s0,sp,828
    800038a6:	4012                	.insn	2, 0x4012
    800038a8:	13be                	slli	t2,t2,0x2f
    800038aa:	c0a6                	sw	s1,64(sp)
    800038ac:	65f5                	lui	a1,0x1d
    800038ae:	c011                	beqz	s0,800038b2 <input_data+0x32b2>
    800038b0:	4d51                	li	s10,20
    800038b2:	1709c043          	.insn	4, 0x1709c043
    800038b6:	952b401b          	.insn	4, 0x952b401b
    800038ba:	c111                	beqz	a0,800038be <input_data+0x32be>
    800038bc:	572a                	lw	a4,168(sp)
    800038be:	ee8dc023          	.insn	4, 0xee8dc023
    800038c2:	c0f6                	sw	t4,64(sp)
    800038c4:	4096c053          	.insn	4, 0x4096c053
    800038c8:	8534                	.insn	2, 0x8534
    800038ca:	c0d9                	beqz	s1,80003950 <input_data+0x3350>
    800038cc:	3b21                	addiw	s6,s6,-24
    800038ce:	c03d                	beqz	s0,80003934 <input_data+0x3334>
    800038d0:	8840                	.insn	2, 0x8840
    800038d2:	bfa2                	fsd	fs0,504(sp)
    800038d4:	0f9d                	addi	t6,t6,7
    800038d6:	4ca7bfe3          	.insn	4, 0x4ca7bfe3
    800038da:	c095                	beqz	s1,800038fe <input_data+0x32fe>
    800038dc:	409bf167          	.insn	4, 0x409bf167
    800038e0:	c088009b          	addiw	ra,a6,-1016 # ffffffffc1140c08 <_end+0xffffffff4112fc08>
    800038e4:	c4a6                	sw	s1,72(sp)
    800038e6:	410c                	lw	a1,0(a0)
    800038e8:	da21                	beqz	a2,80003838 <input_data+0x3238>
    800038ea:	c118                	sw	a4,0(a0)
    800038ec:	bfcec32b          	.insn	4, 0xbfcec32b
    800038f0:	410b2597          	auipc	a1,0x410b2
    800038f4:	18ad                	addi	a7,a7,-21 # 11feb <_start-0x7ffee015>
    800038f6:	bff2                	fsd	ft8,504(sp)
    800038f8:	3f916e37          	lui	t3,0x3f916
    800038fc:	c686                	sw	ra,76(sp)
    800038fe:	3f91                	addiw	t6,t6,-28
    80003900:	404a9557          	.insn	4, 0x404a9557
    80003904:	40d127eb          	.insn	4, 0x40d127eb
    80003908:	2314                	fld	fa3,0(a4)
    8000390a:	c01d                	beqz	s0,80003930 <input_data+0x3330>
    8000390c:	5904                	lw	s1,48(a0)
    8000390e:	c0ae                	sw	a1,64(sp)
    80003910:	3569                	addiw	a0,a0,-6
    80003912:	409e                	lw	ra,196(sp)
    80003914:	0a6c                	addi	a1,sp,284
    80003916:	406c                	lw	a1,68(s0)
    80003918:	ea96                	sd	t0,336(sp)
    8000391a:	c6b0404f          	.insn	4, 0xc6b0404f
    8000391e:	b118c117          	auipc	sp,0xb118c
    80003922:	c06a                	sw	s10,0(sp)
    80003924:	c10675fb          	.insn	4, 0xc10675fb
    80003928:	def0                	sw	a2,124(a3)
    8000392a:	c06a                	sw	s10,0(sp)
    8000392c:	df26                	sw	s1,188(sp)
    8000392e:	bf0c                	fsd	fa1,56(a4)
    80003930:	e335                	bnez	a4,80003994 <input_data+0x3394>
    80003932:	409e                	lw	ra,196(sp)
    80003934:	40f173eb          	.insn	4, 0x40f173eb
    80003938:	5da5                	li	s11,-23
    8000393a:	c080                	sw	s0,0(s1)
    8000393c:	028e                	slli	t0,t0,0x3
    8000393e:	bf14                	fsd	fa3,56(a4)
    80003940:	fcd6                	sd	s5,120(sp)
    80003942:	4070                	lw	a2,68(s0)
    80003944:	40b5                	li	ra,13
    80003946:	40ce                	lw	ra,208(sp)
    80003948:	e251                	bnez	a2,800039cc <input_data+0x33cc>
    8000394a:	110e4107          	.insn	4, 0x110e4107
    8000394e:	c082                	sw	zero,64(sp)
    80003950:	f97f                	.insn	2, 0xf97f
    80003952:	3fcc                	fld	fa1,184(a5)
    80003954:	2b7c                	fld	fa5,208(a4)
    80003956:	40f0                	lw	a2,68(s1)
    80003958:	4117dd4b          	fnmsub.s	fs10,fa5,fa7,fs0,unknown
    8000395c:	0be6                	slli	s7,s7,0x19
    8000395e:	c11c                	sw	a5,0(a0)
    80003960:	403b3df3          	csrrc	s11,0x403,s6
    80003964:	36a4                	fld	fs1,104(a3)
    80003966:	40e2                	lw	ra,24(sp)
    80003968:	50ca                	lw	ra,176(sp)
    8000396a:	c10d                	beqz	a0,8000398c <input_data+0x338c>
    8000396c:	9ddc                	.insn	2, 0x9ddc
    8000396e:	bfb1                	j	800038ca <input_data+0x32ca>
    80003970:	a7aa                	fsd	fa0,456(sp)
    80003972:	4089                	li	ra,2
    80003974:	c0ee6a87          	.insn	4, 0xc0ee6a87
    80003978:	5584                	lw	s1,40(a1)
    8000397a:	c09a                	sw	t1,64(sp)
    8000397c:	fd9a                	sd	t1,248(sp)
    8000397e:	c0ca                	sw	s2,64(sp)
    80003980:	7c00                	ld	s0,56(s0)
    80003982:	c10a                	sw	sp,128(sp)
    80003984:	3314                	fld	fa3,32(a4)
    80003986:	c0d6                	sw	s5,64(sp)
    80003988:	98a6                	add	a7,a7,s1
    8000398a:	4092                	lw	ra,4(sp)
    8000398c:	4886                	lw	a7,64(sp)
    8000398e:	4089                	li	ra,2
    80003990:	956c                	.insn	2, 0x956c
    80003992:	3f14                	fld	fa3,56(a4)
    80003994:	de01                	beqz	a2,800038ac <input_data+0x32ac>
    80003996:	bd42                	fsd	fa6,184(sp)
    80003998:	6e1a                	ld	t3,384(sp)
    8000399a:	3f82                	fld	ft11,32(sp)
    8000399c:	3fceb103          	ld	sp,1020(t4)
    800039a0:	c136                	sw	a3,128(sp)
    800039a2:	c109                	beqz	a0,800039a4 <input_data+0x33a4>
    800039a4:	a544                	fsd	fs1,136(a0)
    800039a6:	87d93f83          	ld	t6,-1923(s2) # 1387d <_start-0x7ffec783>
    800039aa:	40d0                	lw	a2,4(s1)
    800039ac:	0701                	addi	a4,a4,0
    800039ae:	c0a6                	sw	s1,64(sp)
    800039b0:	b16c                	fsd	fa1,224(a0)
    800039b2:	cb19402f          	.insn	4, 0xcb19402f
    800039b6:	be2dc0b3          	.insn	4, 0xbe2dc0b3
    800039ba:	4105                	li	sp,1
    800039bc:	4108ccdb          	.insn	4, 0x4108ccdb
    800039c0:	4085                	li	ra,1
    800039c2:	401e                	.insn	2, 0x401e
    800039c4:	b4e4                	fsd	fs1,232(s1)
    800039c6:	4114                	lw	a3,0(a0)
    800039c8:	a642                	fsd	fa6,264(sp)
    800039ca:	4480c0cb          	.insn	4, 0x4480c0cb
    800039ce:	4036                	.insn	2, 0x4036
    800039d0:	162a                	slli	a2,a2,0x2a
    800039d2:	4100                	lw	s0,0(a0)
    800039d4:	efdf c0ac 5cab      	.insn	6, 0x5cabc0acefdf
    800039da:	bfd4                	fsd	fa3,184(a5)
    800039dc:	8ec1                	or	a3,a3,s0
    800039de:	5f913f57          	.insn	4, 0x5f913f57
    800039e2:	d4a63eff db2f404e 	.insn	16, 0x354e40ac7dfc3eeedb2f404ed4a63eff
    800039ea:	7dfc3eee 354e40ac 
    800039f2:	40e2                	lw	ra,24(sp)
    800039f4:	e636                	sd	a3,264(sp)
    800039f6:	c020                	sw	s0,64(s0)
    800039f8:	ae95                	j	80003d6c <input_data+0x376c>
    800039fa:	4108                	lw	a0,0(a0)
    800039fc:	c9d1                	beqz	a1,80003a90 <input_data+0x3490>
    800039fe:	3f8a                	fld	ft11,160(sp)
    80003a00:	d955                	beqz	a0,800039b4 <input_data+0x33b4>
    80003a02:	3ff9                	addiw	t6,t6,-2
    80003a04:	f8b1                	bnez	s1,80003958 <input_data+0x3358>
    80003a06:	40dd                	li	ra,23
    80003a08:	efed                	bnez	a5,80003b02 <input_data+0x3502>
    80003a0a:	3e0c                	fld	fa1,56(a2)
    80003a0c:	8d82                	jr	s11
    80003a0e:	4040                	lw	s0,4(s0)
    80003a10:	c0325337          	lui	t1,0xc0325
    80003a14:	407c04fb          	.insn	4, 0x407c04fb
    80003a18:	3d9f c0b9 8ece      	.insn	6, 0x8ecec0b93d9f
    80003a1e:	c104                	sw	s1,0(a0)
    80003a20:	c118019b          	addiw	gp,a6,-1007
    80003a24:	f104                	sd	s1,32(a0)
    80003a26:	c08c                	sw	a1,0(s1)
    80003a28:	c08e3873          	csrrc	a6,hpmcounter8,t3
    80003a2c:	98a2                	add	a7,a7,s0
    80003a2e:	bf44                	fsd	fs1,184(a4)
    80003a30:	f5e4                	sd	s1,232(a1)
    80003a32:	8dd64013          	xori	zero,a2,-1827
    80003a36:	40c5                	li	ra,17
    80003a38:	5aee                	lw	s5,248(sp)
    80003a3a:	c039                	beqz	s0,80003a80 <input_data+0x3480>
    80003a3c:	4799                	li	a5,6
    80003a3e:	bfaa                	fsd	fa0,504(sp)
    80003a40:	40191727          	.insn	4, 0x40191727
    80003a44:	4884                	lw	s1,16(s1)
    80003a46:	3fae                	fld	ft11,232(sp)
    80003a48:	032a                	slli	t1,t1,0xa
    80003a4a:	f42e40ab          	.insn	4, 0xf42e40ab
    80003a4e:	c089                	beqz	s1,80003a50 <input_data+0x3450>
    80003a50:	1230                	addi	a2,sp,296
    80003a52:	40df 0781 40db      	.insn	6, 0x40db078140df
    80003a58:	4111288f          	.insn	4, 0x4111288f
    80003a5c:	c0f258ff c105b37e 	.insn	20, 0xc09195db40af6656bedc45ccc105b37ec0f258ff
    80003a64:	bedc45cc 40af6656 
    80003a6c:	c09195db 
    80003a70:	d812                	sw	tp,48(sp)
    80003a72:	c086                	sw	ra,64(sp)
    80003a74:	c32d                	beqz	a4,80003ad6 <input_data+0x34d6>
    80003a76:	40c4                	lw	s1,4(s1)
    80003a78:	a809                	j	80003a8a <input_data+0x348a>
    80003a7a:	c11e                	sw	t2,128(sp)
    80003a7c:	891a                	mv	s2,t1
    80003a7e:	3fe6                	fld	ft11,120(sp)
    80003a80:	a68e                	fsd	ft3,328(sp)
    80003a82:	c11c                	sw	a5,0(a0)
    80003a84:	40f83e73          	csrrc	t3,0x40f,a6
    80003a88:	c0e4a1c7          	fmsub.s	ft3,fs1,fa4,fs8,rdn
    80003a8c:	c10a7bf3          	csrrci	s7,hpmcounter16,20
    80003a90:	ff4e                	sd	s3,440(sp)
    80003a92:	40bc                	lw	a5,64(s1)
    80003a94:	21ad                	addiw	gp,gp,11
    80003a96:	40fc                	lw	a5,68(s1)
    80003a98:	d70c                	sw	a1,40(a4)
    80003a9a:	4092                	lw	ra,4(sp)
    80003a9c:	40a23603          	ld	a2,1034(tp) # 40a <_start-0x7ffffbf6>
    80003aa0:	ba0a                	fsd	ft2,304(sp)
    80003aa2:	c091                	beqz	s1,80003aa6 <input_data+0x34a6>
    80003aa4:	d719                	beqz	a4,800039b2 <input_data+0x33b2>
    80003aa6:	40c8                	lw	a0,4(s1)
    80003aa8:	0630                	addi	a2,sp,776
    80003aaa:	bb21c113          	xori	sp,gp,-1102
    80003aae:	40bc                	lw	a5,64(s1)
    80003ab0:	bc6a                	fsd	fs10,56(sp)
    80003ab2:	c4d240bb          	.insn	4, 0xc4d240bb
    80003ab6:	ea57c0bf b60f409d 	.insn	8, 0xb60f409dea57c0bf
    80003abe:	407e                	.insn	2, 0x407e
    80003ac0:	c07ee5ef          	jal	a1,7fff26c6 <_start-0xd93a>
    80003ac4:	f68c                	sd	a1,40(a3)
    80003ac6:	3f34                	fld	fa3,120(a4)
    80003ac8:	bfcf121b          	.insn	4, 0xbfcf121b
    80003acc:	e72c                	sd	a1,72(a4)
    80003ace:	40ee                	lw	ra,216(sp)
    80003ad0:	95bc                	.insn	2, 0x95bc
    80003ad2:	2f34bfc3          	.insn	4, 0x2f34bfc3
    80003ad6:	9fda40d3          	.insn	4, 0x9fda40d3
    80003ada:	0a0fc08b          	.insn	4, 0x0a0fc08b
    80003ade:	bcca                	fsd	fs2,120(sp)
    80003ae0:	14bc                	addi	a5,sp,616
    80003ae2:	d2acc09b          	.insn	4, 0xd2acc09b
    80003ae6:	c0dd                	beqz	s1,80003b8c <input_data+0x358c>
    80003ae8:	a8ac                	fsd	fa1,80(s1)
    80003aea:	c0e5                	beqz	s1,80003bca <input_data+0x35ca>
    80003aec:	26d0                	fld	fa2,136(a3)
    80003aee:	c3b9bc07          	fld	fs8,-965(s3) # ffffffffffff6c3b <_end+0xffffffff7ffe5c3b>
    80003af2:	3ca6                	fld	fs9,104(sp)
    80003af4:	1f15                	addi	t5,t5,-27 # dc29673b <_end+0x5c28573b>
    80003af6:	2e88bff3          	csrrc	t6,0x2e8,a7
    80003afa:	c09e                	sw	t2,64(sp)
    80003afc:	9069                	srli	s0,s0,0x3a
    80003afe:	401f a71a c027      	.insn	6, 0xc027a71a401f
    80003b04:	b539                	j	80003912 <input_data+0x3312>
    80003b06:	c056                	sw	s5,0(sp)
    80003b08:	c01af06b          	.insn	4, 0xc01af06b
    80003b0c:	d29e                	sw	t2,100(sp)
    80003b0e:	3df74033          	.insn	4, 0x3df74033
    80003b12:	3e8a                	fld	ft9,160(sp)
    80003b14:	c085c163          	blt	a1,s0,80002f16 <input_data+0x2916>
    80003b18:	b4fc                	fsd	fa5,232(s1)
    80003b1a:	40d4                	lw	a3,4(s1)
    80003b1c:	e60c                	sd	a1,8(a2)
    80003b1e:	403c                	lw	a5,64(s0)
    80003b20:	5d20                	lw	s0,120(a0)
    80003b22:	c075                	beqz	s0,80003c06 <input_data+0x3606>
    80003b24:	dbc2                	sw	a6,244(sp)
    80003b26:	c111                	beqz	a0,80003b2a <input_data+0x352a>
    80003b28:	fab5                	bnez	a3,80003a9c <input_data+0x349c>
    80003b2a:	3cea                	fld	fs9,184(sp)
    80003b2c:	e0e9                	bnez	s1,80003bee <input_data+0x35ee>
    80003b2e:	a372c0c7          	fmsub.d	ft1,ft5,fs7,fs4,rmm
    80003b32:	3f98                	fld	fa4,56(a5)
    80003b34:	4115ab17          	auipc	s6,0x4115a
    80003b38:	68e2                	ld	a7,24(sp)
    80003b3a:	c102                	sw	zero,128(sp)
    80003b3c:	8219                	srli	a2,a2,0x6
    80003b3e:	c0a5                	beqz	s1,80003b9e <input_data+0x359e>
    80003b40:	3fb8b3b3          	.insn	4, 0x3fb8b3b3
    80003b44:	c0332d6f          	jal	s10,7ff36746 <_start-0xc98ba>
    80003b48:	5ad9                	li	s5,-10
    80003b4a:	721b3e4f          	fnmadd.d	ft8,fs6,ft1,fa4,rup
    80003b4e:	739cc117          	auipc	sp,0x739cc
    80003b52:	b1144117          	auipc	sp,0xb1144
    80003b56:	4040                	lw	s0,4(s0)
    80003b58:	aec0                	fsd	fs0,152(a3)
    80003b5a:	c035                	beqz	s0,80003bbe <input_data+0x35be>
    80003b5c:	e608                	sd	a0,8(a2)
    80003b5e:	bfc4                	fsd	fs1,184(a5)
    80003b60:	a952                	fsd	fs4,144(sp)
    80003b62:	4bd340a3          	.insn	4, 0x4bd340a3
    80003b66:	1090c007          	.insn	4, 0x1090c007
    80003b6a:	403d                	c.li	zero,15
    80003b6c:	b392                	fsd	ft4,480(sp)
    80003b6e:	4035                	c.li	zero,13
    80003b70:	c0ae9883          	lh	a7,-1014(t4)
    80003b74:	8095                	srli	s1,s1,0x5
    80003b76:	4085                	li	ra,1
    80003b78:	c20a                	sw	sp,4(sp)
    80003b7a:	c11e                	sw	t2,128(sp)
    80003b7c:	75fd                	lui	a1,0xfffff
    80003b7e:	c0d8                	sw	a4,4(s1)
    80003b80:	7454                	ld	a3,168(s0)
    80003b82:	c094                	sw	a3,0(s1)
    80003b84:	9b3d                	andi	a4,a4,-17
    80003b86:	40c0                	lw	s0,4(s1)
    80003b88:	c0059803          	lh	a6,-1024(a1) # ffffffffffffec00 <_end+0xffffffff7ffedc00>
    80003b8c:	40d12aef          	jal	s5,80016798 <_end+0x5798>
    80003b90:	b535                	j	800039bc <input_data+0x33bc>
    80003b92:	4d49400b          	.insn	4, 0x4d49400b
    80003b96:	3fed                	addiw	t6,t6,-5
    80003b98:	dec4                	sw	s1,60(a3)
    80003b9a:	c084                	sw	s1,0(s1)
    80003b9c:	a716                	fsd	ft5,392(sp)
    80003b9e:	3fd2                	fld	ft11,304(sp)
    80003ba0:	2f06                	fld	ft10,64(sp)
    80003ba2:	c0c9                	beqz	s1,80003c24 <input_data+0x3624>
    80003ba4:	7dfa                	ld	s11,440(sp)
    80003ba6:	c046                	sw	a7,0(sp)
    80003ba8:	bdf5                	j	80003aa4 <input_data+0x34a4>
    80003baa:	4066                	.insn	2, 0x4066
    80003bac:	910c                	.insn	2, 0x910c
    80003bae:	40c6                	lw	ra,80(sp)
    80003bb0:	8d6d                	and	a0,a0,a1
    80003bb2:	c075                	beqz	s0,80003c96 <input_data+0x3696>
    80003bb4:	ec74                	sd	a3,216(s0)
    80003bb6:	bf48                	fsd	fa0,184(a4)
    80003bb8:	4bda                	lw	s7,148(sp)
    80003bba:	4091                	li	ra,4
    80003bbc:	1055                	c.nop	-11
    80003bbe:	a5fe411b          	.insn	4, 0xa5fe411b
    80003bc2:	c11d                	beqz	a0,80003be8 <input_data+0x35e8>
    80003bc4:	b1b6                	fsd	fa3,224(sp)
    80003bc6:	c09c                	sw	a5,0(s1)
    80003bc8:	c1a4                	sw	s1,64(a1)
    80003bca:	be95                	j	8000373e <input_data+0x313e>
    80003bcc:	aada                	fsd	fs6,336(sp)
    80003bce:	bf6c                	fsd	fa1,248(a4)
    80003bd0:	4556                	lw	a0,84(sp)
    80003bd2:	bf8c                	fsd	fa1,56(a5)
    80003bd4:	3e54955b          	.insn	4, 0x3e54955b
    80003bd8:	3fd091fb          	.insn	4, 0x3fd091fb
    80003bdc:	fd72                	sd	t3,184(sp)
    80003bde:	6c40c113          	xori	sp,ra,1732
    80003be2:	c106                	sw	ra,128(sp)
    80003be4:	5b1d                	li	s6,-25
    80003be6:	c050                	sw	a2,4(s0)
    80003be8:	5445                	li	s0,-15
    80003bea:	d3ebc083          	lbu	ra,-706(s7)
    80003bee:	c08e                	sw	gp,64(sp)
    80003bf0:	60a2                	ld	ra,8(sp)
    80003bf2:	4059                	c.li	zero,22
    80003bf4:	40fd5e57          	.insn	4, 0x40fd5e57
    80003bf8:	49a1                	li	s3,8
    80003bfa:	ced1c017          	auipc	zero,0xced1c
    80003bfe:	c09f f5d9 4105      	.insn	6, 0x4105f5d9c09f
    80003c04:	cd91                	beqz	a1,80003c20 <input_data+0x3620>
    80003c06:	c108                	sw	a0,0(a0)
    80003c08:	60a0                	ld	s0,64(s1)
    80003c0a:	c0d2                	sw	s4,64(sp)
    80003c0c:	73c1                	lui	t2,0xffff0
    80003c0e:	bc8c3f63          	.insn	4, 0xbc8c3f63
    80003c12:	3fc0                	fld	fs0,184(a5)
    80003c14:	c11779bb          	.insn	4, 0xc11779bb
    80003c18:	0256                	slli	tp,tp,0x15
    80003c1a:	c09a                	sw	t1,64(sp)
    80003c1c:	2a04                	fld	fs1,16(a2)
    80003c1e:	c0f2                	sw	t3,64(sp)
    80003c20:	c0d43b47          	fmsub.s	fs6,fs0,fa3,fs8,rup
    80003c24:	c29c                	sw	a5,0(a3)
    80003c26:	3fb8                	fld	fa4,120(a5)
    80003c28:	6ddd                	lui	s11,0x17
    80003c2a:	4105                	li	sp,1
    80003c2c:	74bc                	ld	a5,104(s1)
    80003c2e:	7a7dc0e7          	.insn	4, 0x7a7dc0e7
    80003c32:	40c0                	lw	s0,4(s1)
    80003c34:	bf8a9047          	.insn	4, 0xbf8a9047
    80003c38:	9d5e                	add	s10,s10,s7
    80003c3a:	410d                	li	sp,3
    80003c3c:	bfde                	fsd	fs7,504(sp)
    80003c3e:	c116                	sw	t0,128(sp)
    80003c40:	43ee                	lw	t2,216(sp)
    80003c42:	4078                	lw	a4,68(s0)
    80003c44:	d0b5                	beqz	s1,80003ba8 <input_data+0x35a8>
    80003c46:	4098                	lw	a4,0(s1)
    80003c48:	2aa4                	fld	fs1,80(a3)
    80003c4a:	f9a840f3          	.insn	4, 0xf9a840f3
    80003c4e:	410a                	lw	sp,128(sp)
    80003c50:	f06a                	sd	s10,32(sp)
    80003c52:	4104                	lw	s1,0(a0)
    80003c54:	c0c0d92b          	.insn	4, 0xc0c0d92b
    80003c58:	64aa                	ld	s1,136(sp)
    80003c5a:	c035                	beqz	s0,80003cbe <input_data+0x36be>
    80003c5c:	fd6d                	bnez	a0,80003c56 <input_data+0x3656>
    80003c5e:	4110                	lw	a2,0(a0)
    80003c60:	194e                	slli	s2,s2,0x33
    80003c62:	c0e0                	sw	s0,68(s1)
    80003c64:	de39                	beqz	a2,80003bc2 <input_data+0x35c2>
    80003c66:	c088                	sw	a0,0(s1)
    80003c68:	3cb0                	fld	fa2,120(s1)
    80003c6a:	3fe2                	fld	ft11,56(sp)
    80003c6c:	c07db6c3          	fmadd.s	fa3,fs11,ft7,fs8,rup
    80003c70:	8f21                	xor	a4,a4,s0
    80003c72:	c3a4407b          	.insn	4, 0xc3a4407b
    80003c76:	405e                	.insn	2, 0x405e
    80003c78:	c06216db          	.insn	4, 0xc06216db
    80003c7c:	c08ff46f          	jal	s0,80003084 <input_data+0x2a84>
    80003c80:	c0ba8f3f 411d4d44 	.insn	8, 0x411d4d44c0ba8f3f
    80003c88:	4085abeb          	.insn	4, 0x4085abeb
    80003c8c:	4cdf c105 725c      	.insn	6, 0x725cc1054cdf
    80003c92:	bf30                	fsd	fa2,120(a4)
    80003c94:	97ec                	.insn	2, 0x97ec
    80003c96:	c0b8                	sw	a4,64(s1)
    80003c98:	f6ea                	sd	s10,360(sp)
    80003c9a:	c104                	sw	s1,0(a0)
    80003c9c:	40f19fff 40235165 	.insn	12, 0xbf2badf34023516540f19fff
    80003ca4:	bf2badf3 
    80003ca8:	2490                	fld	fa2,8(s1)
    80003caa:	c0bd                	beqz	s1,80003d10 <input_data+0x3710>
    80003cac:	37fc                	fld	fa5,232(a5)
    80003cae:	4061                	c.li	zero,24
    80003cb0:	d0df 40df 78f0      	.insn	6, 0x78f040dfd0df
    80003cb6:	4101                	li	sp,0
    80003cb8:	a7d6                	fsd	fs5,456(sp)
    80003cba:	c0b5                	beqz	s1,80003d1e <input_data+0x371e>
    80003cbc:	37a0                	fld	fs0,104(a5)
    80003cbe:	d53bc0f7          	.insn	4, 0xd53bc0f7
    80003cc2:	6a40c0d3          	.insn	4, 0x6a40c0d3
    80003cc6:	404c                	lw	a1,4(s0)
    80003cc8:	23c4                	fld	fs1,128(a5)
    80003cca:	3bf1                	addiw	s7,s7,-4
    80003ccc:	35b6                	fld	fa1,360(sp)
    80003cce:	c11d                	beqz	a0,80003cf4 <input_data+0x36f4>
    80003cd0:	5bfd                	li	s7,-1
    80003cd2:	b0db4097          	auipc	ra,0xb0db4
    80003cd6:	4114                	lw	a3,0(a0)
    80003cd8:	effa                	sd	t5,472(sp)
    80003cda:	c106                	sw	ra,128(sp)
    80003cdc:	969e                	add	a3,a3,t2
    80003cde:	c061                	beqz	s0,80003d9e <input_data+0x379e>
    80003ce0:	c1140fd7          	vwredsumu.vs	v31,v17,v8,v0.t
    80003ce4:	294e                	fld	fs2,208(sp)
    80003ce6:	04ecbf3f 9d4ec0ee 	.insn	8, 0x9d4ec0ee04ecbf3f
    80003cee:	11694067          	.insn	4, 0x11694067
    80003cf2:	c118                	sw	a4,0(a0)
    80003cf4:	c0935caf          	.insn	4, 0xc0935caf
    80003cf8:	dd16                	sw	t0,184(sp)
    80003cfa:	78cd4063          	blt	s10,a2,8000447a <input_data+0x3e7a>
    80003cfe:	4109                	li	sp,2
    80003d00:	4674                	lw	a3,76(a2)
    80003d02:	151ec057          	vmin.vx	v0,v17,t4,v0.t
    80003d06:	40d9                	li	ra,22
    80003d08:	3e1bae47          	.insn	4, 0x3e1bae47
    80003d0c:	c6b6                	sw	a3,76(sp)
    80003d0e:	c116                	sw	t0,128(sp)
    80003d10:	4ba5                	li	s7,9
    80003d12:	ea47bf03          	ld	t5,-348(a5) # 12ea4 <_start-0x7ffed15c>
    80003d16:	c118                	sw	a4,0(a0)
    80003d18:	4111b177          	.insn	4, 0x4111b177
    80003d1c:	c0eda5d3          	.insn	4, 0xc0eda5d3
    80003d20:	40801a87          	.insn	4, 0x40801a87
    80003d24:	8a96                	mv	s5,t0
    80003d26:	b5c54103          	lbu	sp,-1188(a0)
    80003d2a:	4102                	lw	sp,0(sp)
    80003d2c:	75ea                	ld	a1,184(sp)
    80003d2e:	c0d4                	sw	a3,4(s1)
    80003d30:	11b4                	addi	a3,sp,232
    80003d32:	c0a2                	sw	s0,64(sp)
    80003d34:	2be5                	addiw	s7,s7,25
    80003d36:	c0fe                	sw	t6,64(sp)
    80003d38:	8e4e                	mv	t3,s3
    80003d3a:	c0e9                	beqz	s1,80003dfc <input_data+0x37fc>
    80003d3c:	b34c                	fsd	fa1,160(a4)
    80003d3e:	c0a6                	sw	s1,64(sp)
    80003d40:	11f9                	addi	gp,gp,-2
    80003d42:	4025                	c.li	zero,9
    80003d44:	c328                	sw	a0,64(a4)
    80003d46:	c0a0                	sw	s0,64(s1)
    80003d48:	d2f4                	sw	a3,100(a3)
    80003d4a:	4106                	lw	sp,64(sp)
    80003d4c:	adce                	fsd	fs3,216(sp)
    80003d4e:	4102                	lw	sp,0(sp)
    80003d50:	7f9d                	lui	t6,0xfffe7
    80003d52:	c072                	sw	t3,0(sp)
    80003d54:	3c04                	fld	fs1,56(s0)
    80003d56:	3f21                	addiw	t5,t5,-24
    80003d58:	b19c                	fsd	fa5,32(a1)
    80003d5a:	c080                	sw	s0,0(s1)
    80003d5c:	1609                	addi	a2,a2,-30
    80003d5e:	c10a                	sw	sp,128(sp)
    80003d60:	40efaaeb          	.insn	4, 0x40efaaeb
    80003d64:	85c2                	mv	a1,a6
    80003d66:	4080                	lw	s0,0(s1)
    80003d68:	411a6aa3          	.insn	4, 0x411a6aa3
    80003d6c:	904d                	srli	s0,s0,0x33
    80003d6e:	c104                	sw	s1,0(a0)
    80003d70:	ad0c                	fsd	fa1,24(a0)
    80003d72:	3f7dc02f          	.insn	4, 0x3f7dc02f
    80003d76:	4094                	lw	a3,0(s1)
    80003d78:	a351                	j	800042fc <input_data+0x3cfc>
    80003d7a:	c0b9                	beqz	s1,80003dc0 <input_data+0x37c0>
    80003d7c:	3f853e4f          	.insn	4, 0x3f853e4f
    80003d80:	04c9                	addi	s1,s1,18 # 3fc24012 <_start-0x403dbfee>
    80003d82:	c028                	sw	a0,64(s0)
    80003d84:	c3ad                	beqz	a5,80003de6 <input_data+0x37e6>
    80003d86:	40ac                	lw	a1,64(s1)
    80003d88:	1761                	addi	a4,a4,-8
    80003d8a:	9b4ebfd3          	.insn	4, 0x9b4ebfd3
    80003d8e:	40dd                	li	ra,23
    80003d90:	6ead                	lui	t4,0xb
    80003d92:	408c                	lw	a1,0(s1)
    80003d94:	d82a                	sw	a0,48(sp)
    80003d96:	411c                	lw	a5,0(a0)
    80003d98:	8039                	srli	s0,s0,0xe
    80003d9a:	3f1a                	fld	ft10,416(sp)
    80003d9c:	e708                	sd	a0,8(a4)
    80003d9e:	4032                	.insn	2, 0x4032
    80003da0:	a744                	fsd	fs1,136(a4)
    80003da2:	d624408b          	.insn	4, 0xd624408b
    80003da6:	c079                	beqz	s0,80003e6c <input_data+0x386c>
    80003da8:	09ff c0dd c1d7 4090 	.insn	10, 0xd8004090c1d7c0dd09ff
    80003db0:	d800 
    80003db2:	9d02c113          	xori	sp,t0,-1584
    80003db6:	402c                	lw	a1,64(s0)
    80003db8:	ede1                	bnez	a1,80003e90 <input_data+0x3890>
    80003dba:	c060                	sw	s0,68(s0)
    80003dbc:	7796                	ld	a5,352(sp)
    80003dbe:	86f440c3          	.insn	4, 0x86f440c3
    80003dc2:	ae84bec3          	.insn	4, 0xae84bec3
    80003dc6:	c0d6                	sw	s5,64(sp)
    80003dc8:	86ff 4080 5ed0 3f8b 	.insn	10, 0x383d3f8b5ed0408086ff
    80003dd0:	383d 
    80003dd2:	40f5                	li	ra,29
    80003dd4:	845d                	srai	s0,s0,0x17
    80003dd6:	c100                	sw	s0,0(a0)
    80003dd8:	3335                	addiw	t1,t1,-19 # ffffffffc0324fed <_end+0xffffffff40313fed>
    80003dda:	c099                	beqz	s1,80003de0 <input_data+0x37e0>
    80003ddc:	c11be6c3          	fmadd.s	fa3,fs7,fa7,fs8,unknown
    80003de0:	d49d                	beqz	s1,80003d0e <input_data+0x370e>
    80003de2:	4034                	lw	a3,64(s0)
    80003de4:	1918                	addi	a4,sp,176
    80003de6:	4085                	li	ra,1
    80003de8:	9ef1                	.insn	2, 0x9ef1
    80003dea:	e1584023          	.insn	4, 0xe1584023
    80003dee:	bf90                	fsd	fa2,56(a5)
    80003df0:	e1bd                	bnez	a1,80003e56 <input_data+0x3856>
    80003df2:	c0de                	sw	s7,64(sp)
    80003df4:	4002a227          	fsw	ft0,1028(t0)
    80003df8:	e6e6                	sd	s9,328(sp)
    80003dfa:	3fd5                	addiw	t6,t6,-11 # fffffffffffe6ff5 <_end+0xffffffff7ffd5ff5>
    80003dfc:	207d                	.insn	2, 0x207d
    80003dfe:	d0af3fcb          	fnmsub.s	ft11,ft10,fa0,fs10,rup
    80003e02:	c0be                	sw	a5,64(sp)
    80003e04:	9fa1                	addw	a5,a5,s0
    80003e06:	c00e                	sw	gp,0(sp)
    80003e08:	bdf1                	j	80003ce4 <input_data+0x36e4>
    80003e0a:	a16abd7f ea21bffc 	.insn	16, 0x4aba4019dd593faaea21bffca16abd7f
    80003e12:	dd593faa 4aba4019 
    80003e1a:	91b4408b          	.insn	4, 0x91b4408b
    80003e1e:	3f1f 9153 c00c      	.insn	6, 0xc00c91533f1f
    80003e24:	2e99                	addiw	t4,t4,6 # b006 <_start-0x7fff4ffa>
    80003e26:	40cd                	li	ra,19
    80003e28:	f855                	bnez	s0,80003ddc <input_data+0x37dc>
    80003e2a:	c004                	sw	s1,0(s0)
    80003e2c:	40ff904b          	fnmsub.s	ft0,ft11,fa5,fs0,rtz
    80003e30:	5b64                	lw	s1,116(a4)
    80003e32:	b430c01b          	.insn	4, 0xb430c01b
    80003e36:	42ab4113          	xori	sp,s6,1066
    80003e3a:	4111                	li	sp,4
    80003e3c:	f4b2                	sd	a2,104(sp)
    80003e3e:	c102                	sw	zero,128(sp)
    80003e40:	3f4503fb          	.insn	4, 0x3f4503fb
    80003e44:	9f02                	jalr	t5
    80003e46:	402e                	.insn	2, 0x402e
    80003e48:	40d027eb          	.insn	4, 0x40d027eb
    80003e4c:	5549                	li	a0,-14
    80003e4e:	40f1                	li	ra,28
    80003e50:	406686cb          	fnmsub.s	fa3,fa3,ft6,fs0,rne
    80003e54:	9ed4                	.insn	2, 0x9ed4
    80003e56:	40a0                	lw	s0,64(s1)
    80003e58:	0005                	c.nop	1
    80003e5a:	c11a                	sw	t1,128(sp)
    80003e5c:	c57f c100 34a4 4075 	.insn	18, 0xa5d3bfcdf40ac0fbabf5407534a4c100c57f
    80003e64:	abf5 c0fb f40a bfcd 
    80003e6c:	a5d3 
    80003e6e:	28dd3fe7          	.insn	4, 0x28dd3fe7
    80003e72:	4040                	lw	s0,4(s0)
    80003e74:	20f6                	fld	ft1,344(sp)
    80003e76:	c11d                	beqz	a0,80003e9c <input_data+0x389c>
    80003e78:	40f8aaf3          	csrrs	s5,0x40f,a7
    80003e7c:	40c66e67          	.insn	4, 0x40c66e67
    80003e80:	a945                	j	80004330 <input_data+0x3d30>
    80003e82:	9b784093          	xori	ra,a6,-1609
    80003e86:	401f b2dd c0ac      	.insn	6, 0xc0acb2dd401f
    80003e8c:	839e                	mv	t2,t2
    80003e8e:	4115                	li	sp,5
    80003e90:	405178fb          	.insn	4, 0x405178fb
    80003e94:	c10d74cb          	fnmsub.s	fs1,fs10,fa6,fs8
    80003e98:	bff4                	fsd	fa3,248(a5)
    80003e9a:	3f98                	fld	fa4,56(a5)
    80003e9c:	ac52                	fsd	fs4,24(sp)
    80003e9e:	c0ec                	sw	a1,68(s1)
    80003ea0:	1659                	addi	a2,a2,-10
    80003ea2:	bfd6                	fsd	fs5,504(sp)
    80003ea4:	c0ecb66b          	.insn	4, 0xc0ecb66b
    80003ea8:	c09b3943          	fmadd.s	fs2,fs6,fs1,fs8,rup
    80003eac:	c11c9703          	lh	a4,-1007(s9)
    80003eb0:	0f45                	addi	t5,t5,17
    80003eb2:	3e1c                	fld	fa5,56(a2)
    80003eb4:	c0ba28e3          	.insn	4, 0xc0ba28e3
    80003eb8:	c10cab67          	.insn	4, 0xc10cab67
    80003ebc:	e310                	sd	a2,0(a4)
    80003ebe:	411d                	li	sp,7
    80003ec0:	41087a57          	vsetvli	s4,a6,1040
    80003ec4:	d341                	beqz	a4,80003e44 <input_data+0x3844>
    80003ec6:	f7a94057          	.insn	4, 0xf7a94057
    80003eca:	be74                	fsd	fa3,248(a2)
    80003ecc:	ea64                	sd	s1,208(a2)
    80003ece:	c028                	sw	a0,64(s0)
    80003ed0:	6fcc                	ld	a1,152(a5)
    80003ed2:	c109                	beqz	a0,80003ed4 <input_data+0x38d4>
    80003ed4:	e5d6                	sd	s5,200(sp)
    80003ed6:	4099                	li	ra,6
    80003ed8:	67b6                	ld	a5,328(sp)
    80003eda:	4076                	.insn	2, 0x4076
    80003edc:	d806                	sw	ra,48(sp)
    80003ede:	0d45c0bf 5cf44072 	.insn	8, 0x5cf440720d45c0bf
    80003ee6:	40ca                	lw	ra,144(sp)
    80003ee8:	737e                	ld	t1,504(sp)
    80003eea:	4116                	lw	sp,68(sp)
    80003eec:	0e65                	addi	t3,t3,25 # 3f916019 <_start-0x406e9fe7>
    80003eee:	40c2                	lw	ra,16(sp)
    80003ef0:	578c                	lw	a1,40(a5)
    80003ef2:	c0e6                	sw	s9,64(sp)
    80003ef4:	c7bd                	beqz	a5,80003f62 <input_data+0x3962>
    80003ef6:	40a6                	lw	ra,72(sp)
    80003ef8:	7be1                	lui	s7,0xffff8
    80003efa:	4081                	li	ra,0
    80003efc:	a711                	j	80004600 <neg_inf_32>
    80003efe:	e5154037          	lui	zero,0xe5154
    80003f02:	f4284027          	.insn	4, 0xf4284027
    80003f06:	c035                	beqz	s0,80003f6a <input_data+0x396a>
    80003f08:	bf68                	fsd	fa0,248(a4)
    80003f0a:	4080                	lw	s0,0(s1)
    80003f0c:	c11eeac3          	fmadd.s	fs5,ft9,fa7,fs8,unknown
    80003f10:	bfcf7ab3          	.insn	4, 0xbfcf7ab3
    80003f14:	c0a5c6c3          	fmadd.s	fa3,fa1,fa0,fs8,rmm
    80003f18:	40fe471b          	.insn	4, 0x40fe471b
    80003f1c:	7495                	lui	s1,0xfffe5
    80003f1e:	40e5                	li	ra,25
    80003f20:	1e90                	addi	a2,sp,880
    80003f22:	40c6                	lw	ra,80(sp)
    80003f24:	90b4                	.insn	2, 0x90b4
    80003f26:	3fe4                	fld	fs1,248(a5)
    80003f28:	40729093          	.insn	4, 0x40729093
    80003f2c:	cc3d                	beqz	s0,80003faa <input_data+0x39aa>
    80003f2e:	c11a                	sw	t1,128(sp)
    80003f30:	7250                	ld	a2,160(a2)
    80003f32:	bfdd                	j	80003f28 <input_data+0x3928>
    80003f34:	217a                	fld	ft2,408(sp)
    80003f36:	90de4103          	lbu	sp,-1779(t3)
    80003f3a:	bed6                	fsd	fs5,376(sp)
    80003f3c:	8206                	mv	tp,ra
    80003f3e:	411f d4a2 410e      	.insn	6, 0x410ed4a2411f
    80003f44:	7cc4                	ld	s1,184(s1)
    80003f46:	8a354113          	xori	sp,a0,-1885
    80003f4a:	40ed                	li	ra,27
    80003f4c:	c5b6                	sw	a3,200(sp)
    80003f4e:	c106                	sw	ra,128(sp)
    80003f50:	903a                	c.add	zero,a4
    80003f52:	27b7c053          	.insn	4, 0x27b7c053
    80003f56:	4035                	c.li	zero,13
    80003f58:	c022a47b          	.insn	4, 0xc022a47b
    80003f5c:	10ca                	slli	ra,ra,0x32
    80003f5e:	c100                	sw	s0,0(a0)
    80003f60:	b9d4                	fsd	fa3,176(a1)
    80003f62:	c06e                	sw	s11,0(sp)
    80003f64:	c1117987          	.insn	4, 0xc1117987
    80003f68:	e445                	bnez	s0,80004010 <input_data+0x3a10>
    80003f6a:	c109                	beqz	a0,80003f6c <input_data+0x396c>
    80003f6c:	c552                	sw	s4,136(sp)
    80003f6e:	40a9                	li	ra,10
    80003f70:	2a82                	fld	fs5,0(sp)
    80003f72:	c0c2                	sw	a6,64(sp)
    80003f74:	5c10                	lw	a2,56(s0)
    80003f76:	c0a9                	beqz	s1,80003fb8 <input_data+0x39b8>
    80003f78:	4005a837          	lui	a6,0x4005a
    80003f7c:	c0377cb3          	.insn	4, 0xc0377cb3
    80003f80:	6e7e                	ld	t3,472(sp)
    80003f82:	c0e0                	sw	s0,68(s1)
    80003f84:	65c1                	lui	a1,0x10
    80003f86:	c115                	beqz	a0,80003faa <input_data+0x39aa>
    80003f88:	410334b3          	.insn	4, 0x410334b3
    80003f8c:	4c92                	lw	s9,4(sp)
    80003f8e:	c10a                	sw	sp,128(sp)
    80003f90:	80d4                	.insn	2, 0x80d4
    80003f92:	404d                	c.li	zero,19
    80003f94:	0596                	slli	a1,a1,0x5
    80003f96:	68aa3fcf          	fnmadd.s	ft11,fs4,fa0,fa3,rup
    80003f9a:	4104                	lw	s1,0(a0)
    80003f9c:	2160                	fld	fs0,192(a0)
    80003f9e:	403a                	.insn	2, 0x403a
    80003fa0:	a835                	j	80003fdc <input_data+0x39dc>
    80003fa2:	40b6                	lw	ra,76(sp)
    80003fa4:	e6f2                	sd	t3,328(sp)
    80003fa6:	411d                	li	sp,7
    80003fa8:	65f1                	lui	a1,0x1c
    80003faa:	4089                	li	ra,2
    80003fac:	4148                	lw	a0,4(a0)
    80003fae:	20d5c0bb          	.insn	4, 0x20d5c0bb
    80003fb2:	bf3c                	fsd	fa5,120(a4)
    80003fb4:	f499                	bnez	s1,80003ec2 <input_data+0x38c2>
    80003fb6:	c0f2                	sw	t3,64(sp)
    80003fb8:	2c8a                	fld	fs9,128(sp)
    80003fba:	408d                	li	ra,3
    80003fbc:	5109                	li	sp,-30
    80003fbe:	bf4a                	fsd	fs2,440(sp)
    80003fc0:	b4b9                	j	80003a0e <input_data+0x340e>
    80003fc2:	af68c0bf cf1440d1 	.insn	8, 0xcf1440d1af68c0bf
    80003fca:	bf99                	j	80003f20 <input_data+0x3920>
    80003fcc:	0f19                	addi	t5,t5,6
    80003fce:	4c8c410b          	.insn	4, 0x4c8c410b
    80003fd2:	4022                	.insn	2, 0x4022
    80003fd4:	4706                	lw	a4,64(sp)
    80003fd6:	c071                	beqz	s0,8000409a <input_data+0x3a9a>
    80003fd8:	bf8d2253          	.insn	4, 0xbf8d2253
    80003fdc:	10e4                	addi	s1,sp,108
    80003fde:	c0b1                	beqz	s1,80004022 <input_data+0x3a22>
    80003fe0:	f42e                	sd	a1,40(sp)
    80003fe2:	ea8cc0ab          	.insn	4, 0xea8cc0ab
    80003fe6:	c0f4                	sw	a3,68(s1)
    80003fe8:	ede9                	bnez	a1,800040c2 <input_data+0x3ac2>
    80003fea:	4108                	lw	a0,0(a0)
    80003fec:	c101                	beqz	a0,80003fec <input_data+0x39ec>
    80003fee:	4024                	lw	s1,64(s0)
    80003ff0:	b7d4                	fsd	fa3,168(a5)
    80003ff2:	4022                	.insn	2, 0x4022
    80003ff4:	40e33bfb          	.insn	4, 0x40e33bfb
    80003ff8:	9d52                	add	s10,s10,s4
    80003ffa:	bf9e                	fsd	ft7,504(sp)
    80003ffc:	10c5                	addi	ra,ra,-15 # 30db7cc3 <_start-0x4f24833d>
    80003ffe:	408d                	li	ra,3
    80004000:	c278                	sw	a4,68(a2)
    80004002:	408a                	lw	ra,128(sp)
    80004004:	6b81                	.insn	2, 0x6b81
    80004006:	c086                	sw	ra,64(sp)
    80004008:	411a69a7          	.insn	4, 0x411a69a7
    8000400c:	846a                	mv	s0,s10
    8000400e:	be8e                	fsd	ft3,376(sp)
    80004010:	17ca                	slli	a5,a5,0x32
    80004012:	bf14                	fsd	fa3,56(a4)
    80004014:	4101d2e7          	.insn	4, 0x4101d2e7
    80004018:	cd1c                	sw	a5,24(a0)
    8000401a:	4055                	c.li	zero,21
    8000401c:	c3a0                	sw	s0,64(a5)
    8000401e:	40a9                	li	ra,10
    80004020:	c103f133          	.insn	4, 0xc103f133
    80004024:	411c5bbf c109e44b 	.insn	8, 0xc109e44b411c5bbf
    8000402c:	6599                	lui	a1,0x6
    8000402e:	df6e402b          	.insn	4, 0xdf6e402b
    80004032:	590140ef          	jal	800185c2 <_end+0x75c2>
    80004036:	17f0411b          	.insn	4, 0x17f0411b
    8000403a:	40a6                	lw	ra,72(sp)
    8000403c:	83a5                	srli	a5,a5,0x9
    8000403e:	c015                	beqz	s0,80004062 <input_data+0x3a62>
    80004040:	f751                	bnez	a4,80003fcc <input_data+0x39cc>
    80004042:	ce36bfb7          	lui	t6,0xce36b
    80004046:	14f5c07b          	.insn	4, 0x14f5c07b
    8000404a:	40e6                	lw	ra,88(sp)
    8000404c:	cc18                	sw	a4,24(s0)
    8000404e:	cddd40fb          	.insn	4, 0xcddd40fb
    80004052:	33e8c0d3          	.insn	4, 0x33e8c0d3
    80004056:	c05a                	sw	s6,0(sp)
    80004058:	a585                	j	800046b8 <dstData+0x70>
    8000405a:	c0b8                	sw	a4,64(s1)
    8000405c:	cf9e                	sw	t2,220(sp)
    8000405e:	bfee                	fsd	fs11,504(sp)
    80004060:	5800                	lw	s0,48(s0)
    80004062:	9b01400f          	.insn	4, 0x9b01400f
    80004066:	c106                	sw	ra,128(sp)
    80004068:	3096                	fld	ft1,352(sp)
    8000406a:	c0d2                	sw	s4,64(sp)
    8000406c:	8295                	srli	a3,a3,0x5
    8000406e:	3efe                	fld	ft9,504(sp)
    80004070:	01d2                	slli	gp,gp,0x14
    80004072:	40f5                	li	ra,29
    80004074:	8295                	srli	a3,a3,0x5
    80004076:	40d5                	li	ra,21
    80004078:	02cc                	addi	a1,sp,324
    8000407a:	c11a                	sw	t1,128(sp)
    8000407c:	5f91                	li	t6,-28
    8000407e:	e1584023          	.insn	4, 0xe1584023
    80004082:	c059                	beqz	s0,80004108 <input_data+0x3b08>
    80004084:	8149                	srli	a0,a0,0x12
    80004086:	4041                	c.li	zero,16
    80004088:	40b3cd5b          	.insn	4, 0x40b3cd5b
    8000408c:	400c                	lw	a1,0(s0)
    8000408e:	40c5                	li	ra,17
    80004090:	4042                	.insn	2, 0x4042
    80004092:	4052                	.insn	2, 0x4052
    80004094:	1ea2                	slli	t4,t4,0x28
    80004096:	263ec113          	xori	sp,t4,611
    8000409a:	40a6                	lw	ra,72(sp)
    8000409c:	cb04                	sw	s1,16(a4)
    8000409e:	c0bd                	beqz	s1,80004104 <input_data+0x3b04>
    800040a0:	52fc                	lw	a5,100(a3)
    800040a2:	4089                	li	ra,2
    800040a4:	c624                	sw	s1,72(a2)
    800040a6:	03d740c3          	fmadd.d	ft1,fa4,ft9,ft0,rmm
    800040aa:	c100                	sw	s0,0(a0)
    800040ac:	eef6                	sd	t4,344(sp)
    800040ae:	751bbc8f          	.insn	4, 0x751bbc8f
    800040b2:	c0f9                	beqz	s1,80004178 <input_data+0x3b78>
    800040b4:	3ed2ac97          	auipc	s9,0x3ed2a
    800040b8:	2112                	fld	ft2,256(sp)
    800040ba:	c08d                	beqz	s1,800040dc <input_data+0x3adc>
    800040bc:	c0f07c63          	bgeu	zero,a5,800034d4 <input_data+0x2ed4>
    800040c0:	40a2c873          	.insn	4, 0x40a2c873
    800040c4:	40f81457          	.insn	4, 0x40f81457
    800040c8:	4889                	li	a7,2
    800040ca:	410c                	lw	a1,0(a0)
    800040cc:	3f9a7497          	auipc	s1,0x3f9a7
    800040d0:	3ee87ebf c0c54880 	.insn	8, 0xc0c548803ee87ebf
    800040d8:	c115f0cb          	fnmsub.s	ft1,fa1,fa7,fs8
    800040dc:	17c6                	slli	a5,a5,0x31
    800040de:	bf79                	j	8000407c <input_data+0x3a7c>
    800040e0:	c409                	beqz	s0,800040ea <input_data+0x3aea>
    800040e2:	4022                	.insn	2, 0x4022
    800040e4:	17a9                	addi	a5,a5,-22
    800040e6:	40ad                	li	ra,11
    800040e8:	d0ee                	sw	s11,96(sp)
    800040ea:	c0a0                	sw	s0,64(s1)
    800040ec:	40dcfec3          	fmadd.s	ft9,fs9,fa3,fs0
    800040f0:	0664                	addi	s1,sp,780
    800040f2:	bf22                	fsd	fs0,440(sp)
    800040f4:	b949                	j	80003d86 <input_data+0x3786>
    800040f6:	405d                	c.li	zero,23
    800040f8:	231a                	fld	ft6,384(sp)
    800040fa:	c096                	sw	t0,64(sp)
    800040fc:	b141                	j	80003d7c <input_data+0x377c>
    800040fe:	c118                	sw	a4,0(a0)
    80004100:	27d9                	addiw	a5,a5,22
    80004102:	bfc8                	fsd	fa0,184(a5)
    80004104:	00e2                	slli	ra,ra,0x18
    80004106:	411a                	lw	sp,132(sp)
    80004108:	696a                	ld	s2,152(sp)
    8000410a:	c041                	beqz	s0,8000418a <input_data+0x3b8a>
    8000410c:	c20d                	beqz	a2,8000412e <input_data+0x3b2e>
    8000410e:	4d38c053          	.insn	4, 0x4d38c053
    80004112:	bf5f 9729 bfb8      	.insn	6, 0xbfb89729bf5f
    80004118:	0446                	slli	s0,s0,0x11
    8000411a:	e5e4c103          	lbu	sp,-418(s1) # bf9aaf2a <_end+0x3f999f2a>
    8000411e:	c0c0                	sw	s0,4(s1)
    80004120:	32c8                	fld	fa0,160(a3)
    80004122:	c0d5                	beqz	s1,800041c6 <input_data+0x3bc6>
    80004124:	416c                	lw	a1,68(a0)
    80004126:	4018                	lw	a4,0(s0)
    80004128:	f30e                	sd	gp,416(sp)
    8000412a:	409c                	lw	a5,0(s1)
    8000412c:	c0df1403          	lh	s0,-1011(t5)
    80004130:	2a9d                	addiw	s5,s5,7
    80004132:	c05c                	sw	a5,4(s0)
    80004134:	1d65                	addi	s10,s10,-7
    80004136:	c0f4                	sw	a3,68(s1)
    80004138:	3098                	fld	fa4,32(s1)
    8000413a:	407f 686a bf95 c0ca 	.insn	18, 0xc001d27040b5c6b03f19c0cabf95686a407f
    80004142:	3f19 c6b0 40b5 d270 
    8000414a:	c001 
    8000414c:	bd621d97          	auipc	s11,0xbd621
    80004150:	47f5                	li	a5,29
    80004152:	c02d                	beqz	s0,800041b4 <input_data+0x3bb4>
    80004154:	c0cfed0b          	.insn	4, 0xc0cfed0b
    80004158:	0716                	slli	a4,a4,0x5
    8000415a:	c0b0                	sw	a2,64(s1)
    8000415c:	ea29                	bnez	a2,800041ae <input_data+0x3bae>
    8000415e:	c0bd                	beqz	s1,800041c4 <input_data+0x3bc4>
    80004160:	56f4                	lw	a3,108(a3)
    80004162:	c104                	sw	s1,0(a0)
    80004164:	205c                	fld	fa5,128(s0)
    80004166:	14454063          	blt	a0,tp,800042a6 <input_data+0x3ca6>
    8000416a:	c11d                	beqz	a0,80004190 <input_data+0x3b90>
    8000416c:	5169                	li	sp,-6
    8000416e:	7100bed7          	vmsleu.vi	v29,v16,1,v0.t
    80004172:	ab4a3ecf          	fnmadd.d	ft9,fs4,fs4,fs5,rup
    80004176:	c11f 2370 4023      	.insn	6, 0x40232370c11f
    8000417c:	48dc                	lw	a5,20(s1)
    8000417e:	4112                	lw	sp,4(sp)
    80004180:	35d1                	addiw	a1,a1,-12 # 5ff4 <_start-0x7fffa00c>
    80004182:	c11a                	sw	t1,128(sp)
    80004184:	c005014b          	fnmsub.s	ft2,fa0,ft0,fs8,rne
    80004188:	4385                	li	t2,1
    8000418a:	407c                	lw	a5,68(s0)
    8000418c:	d1bd                	beqz	a1,800040f2 <input_data+0x3af2>
    8000418e:	c0e5                	beqz	s1,8000426e <input_data+0x3c6e>
    80004190:	0eb6                	slli	t4,t4,0xd
    80004192:	bec6                	fsd	fa7,376(sp)
    80004194:	b5fc                	fsd	fa5,232(a1)
    80004196:	4094                	lw	a3,0(s1)
    80004198:	4112bc7f c1082eb4 	.insn	16, 0xc108950fc08c97dbc1082eb44112bc7f
    800041a0:	c08c97db c108950f 
    800041a8:	87c2                	mv	a5,a6
    800041aa:	c03d                	beqz	s0,80004210 <input_data+0x3c10>
    800041ac:	0304                	addi	s1,sp,384
    800041ae:	3ffa                	fld	ft11,440(sp)
    800041b0:	5d1a                	lw	s10,164(sp)
    800041b2:	bf94c08b          	.insn	4, 0xbf94c08b
    800041b6:	e5113e8b          	.insn	4, 0xe5113e8b
    800041ba:	c001                	beqz	s0,800041ba <input_data+0x3bba>
    800041bc:	862c                	.insn	2, 0x862c
    800041be:	411a                	lw	sp,132(sp)
    800041c0:	1972                	slli	s2,s2,0x3c
    800041c2:	4061                	c.li	zero,24
    800041c4:	c089c137          	lui	sp,0xc089c
    800041c8:	844d                	srai	s0,s0,0x13
    800041ca:	c00d                	beqz	s0,800041ec <input_data+0x3bec>
    800041cc:	40aaaa0f          	.insn	4, 0x40aaaa0f
    800041d0:	7c20                	ld	s0,120(s0)
    800041d2:	3f94                	fld	fa3,56(a5)
    800041d4:	5565                	li	a0,-7
    800041d6:	abf2c013          	xori	zero,t0,-1345
    800041da:	4104                	lw	s1,0(a0)
    800041dc:	1a5f c0bb c83c      	.insn	6, 0xc83cc0bb1a5f
    800041e2:	c114                	sw	a3,0(a0)
    800041e4:	bc99                	j	80003c3a <input_data+0x363a>
    800041e6:	c002                	sw	zero,0(sp)
    800041e8:	76b0                	ld	a2,104(a3)
    800041ea:	beec                	fsd	fa1,248(a3)
    800041ec:	e1b8                	sd	a4,64(a1)
    800041ee:	8859c10f          	.insn	4, 0x8859c10f
    800041f2:	c0a5                	beqz	s1,80004252 <input_data+0x3c52>
    800041f4:	6e30                	ld	a2,88(a2)
    800041f6:	410d                	li	sp,3
    800041f8:	3051                	.insn	2, 0x3051
    800041fa:	c048                	sw	a0,4(s0)
    800041fc:	c11d5227          	.insn	4, 0xc11d5227
    80004200:	7885                	lui	a7,0xfffe1
    80004202:	8fc5c0bf 6adb410b 	.insn	8, 0x6adb410b8fc5c0bf
    8000420a:	c07e                	sw	t6,0(sp)
    8000420c:	60e4                	ld	s1,192(s1)
    8000420e:	411c                	lw	a5,0(a0)
    80004210:	6b5c                	ld	a5,144(a4)
    80004212:	6228c10f          	.insn	4, 0x6228c10f
    80004216:	c01c                	sw	a5,0(s0)
    80004218:	2991                	addiw	s3,s3,4
    8000421a:	01823feb          	.insn	4, 0x01823feb
    8000421e:	c002                	sw	zero,0(sp)
    80004220:	d11e                	sw	t2,160(sp)
    80004222:	c089                	beqz	s1,80004224 <input_data+0x3c24>
    80004224:	2474                	fld	fa3,200(s0)
    80004226:	f048bdb7          	lui	s11,0xf048b
    8000422a:	c08c                	sw	a1,0(s1)
    8000422c:	403418e7          	.insn	4, 0x403418e7
    80004230:	750c                	ld	a1,40(a0)
    80004232:	4106                	lw	sp,64(sp)
    80004234:	8668                	.insn	2, 0x8668
    80004236:	c0fe                	sw	t6,64(sp)
    80004238:	c0052253          	fcvt.w.s	tp,fa0,rdn
    8000423c:	e488                	sd	a0,8(s1)
    8000423e:	afc040f7          	.insn	4, 0xafc040f7
    80004242:	3d91                	addiw	s11,s11,-28 # fffffffff048afe4 <_end+0xffffffff70479fe4>
    80004244:	eda6                	sd	s1,216(sp)
    80004246:	692d40bb          	.insn	4, 0x692d40bb
    8000424a:	c0bd                	beqz	s1,800042b0 <input_data+0x3cb0>
    8000424c:	c4df 40e1 2175      	.insn	6, 0x217540e1c4df
    80004252:	b4e3c00f          	.insn	4, 0xb4e3c00f
    80004256:	c0e8                	sw	a0,68(s1)
    80004258:	c0844fb3          	.insn	4, 0xc0844fb3
    8000425c:	2e84                	fld	fs1,24(a3)
    8000425e:	c079                	beqz	s0,80004324 <input_data+0x3d24>
    80004260:	434a                	lw	t1,144(sp)
    80004262:	4104                	lw	s1,0(a0)
    80004264:	6365                	lui	t1,0x19
    80004266:	40b8                	lw	a4,64(s1)
    80004268:	bf16                	fsd	ft5,440(sp)
    8000426a:	c002                	sw	zero,0(sp)
    8000426c:	3f99a123          	sw	s9,994(s3)
    80004270:	83dc                	.insn	2, 0x83dc
    80004272:	ccc440bb          	.insn	4, 0xccc440bb
    80004276:	3ee6                	fld	ft9,120(sp)
    80004278:	8e9f 40e2 aaa4      	.insn	6, 0xaaa440e28e9f
    8000427e:	40cc                	lw	a1,4(s1)
    80004280:	efd8                	sd	a4,152(a5)
    80004282:	3e91                	addiw	t4,t4,-28
    80004284:	c0dd644b          	fnmsub.s	fs0,fs10,fa3,fs8,unknown
    80004288:	408e97ff 4046cec4 	.insn	12, 0x409b60694046cec4408e97ff
    80004290:	409b6069 
    80004294:	1d9f c0fc 90cf      	.insn	6, 0x90cfc0fc1d9f
    8000429a:	c102                	sw	zero,128(sp)
    8000429c:	c018065b          	.insn	4, 0xc018065b
    800042a0:	61ae                	ld	gp,200(sp)
    800042a2:	404c                	lw	a1,4(s0)
    800042a4:	579d                	li	a5,-25
    800042a6:	ba3440e7          	.insn	4, 0xba3440e7
    800042aa:	3f7d404b          	.insn	4, 0x3f7d404b
    800042ae:	40aa                	lw	ra,136(sp)
    800042b0:	7360                	ld	s0,224(a4)
    800042b2:	c0a4                	sw	s1,64(s1)
    800042b4:	3fa3cdb3          	.insn	4, 0x3fa3cdb3
    800042b8:	bede5343          	.insn	4, 0xbede5343
    800042bc:	dc6a                	sw	s10,56(sp)
    800042be:	40a1                	li	ra,8
    800042c0:	4795                	li	a5,5
    800042c2:	3fc1                	addiw	t6,t6,-16 # ffffffffce36aff0 <_end+0xffffffff4e359ff0>
    800042c4:	403e009b          	addiw	ra,t3,1027
    800042c8:	206a                	fld	ft0,152(sp)
    800042ca:	40bd                	li	ra,15
    800042cc:	c0992eab          	.insn	4, 0xc0992eab
    800042d0:	b21d                	j	80003bf6 <input_data+0x35f6>
    800042d2:	c110                	sw	a2,0(a0)
    800042d4:	c05465cb          	fnmsub.s	fa1,fs0,ft5,fs8,unknown
    800042d8:	0f8c                	addi	a1,sp,976
    800042da:	d6f93e23          	sd	a5,-644(s2)
    800042de:	c068                	sw	a0,68(s0)
    800042e0:	f8fc                	sd	a5,240(s1)
    800042e2:	4101                	li	sp,0
    800042e4:	a6b8                	fsd	fa4,72(a3)
    800042e6:	4104                	lw	s1,0(a0)
    800042e8:	7d9c                	ld	a5,56(a1)
    800042ea:	4d08c0e7          	.insn	4, 0x4d08c0e7
    800042ee:	40ad                	li	ra,11
    800042f0:	cb6e                	sw	s11,148(sp)
    800042f2:	2652c117          	auipc	sp,0x2652c
    800042f6:	407a                	.insn	2, 0x407a
    800042f8:	93ea                	add	t2,t2,s10
    800042fa:	c0ae                	sw	a1,64(sp)
    800042fc:	41135c07          	.insn	4, 0x41135c07
    80004300:	8aff c11b 975d 40b5 	.insn	10, 0xa90440b5975dc11b8aff
    80004308:	a904 
    8000430a:	c0e6                	sw	s9,64(sp)
    8000430c:	c5ce                	sw	s3,200(sp)
    8000430e:	6e72bdbf e9ed3e13 	.insn	8, 0xe9ed3e136e72bdbf
    80004316:	c106                	sw	ra,128(sp)
    80004318:	fff8                	sd	a4,248(a5)
    8000431a:	c0fd                	beqz	s1,80004400 <input_data+0x3e00>
    8000431c:	3448                	fld	fa0,168(s0)
    8000431e:	3f49                	addiw	t5,t5,-14
    80004320:	4f96                	lw	t6,68(sp)
    80004322:	e7534113          	xori	sp,t1,-395
    80004326:	40a4                	lw	s1,64(s1)
    80004328:	9a7c                	.insn	2, 0x9a7c
    8000432a:	91a73f0f          	.insn	4, 0x91a73f0f
    8000432e:	c106                	sw	ra,128(sp)
    80004330:	3f125a47          	.insn	4, 0x3f125a47
    80004334:	8772                	mv	a4,t3
    80004336:	404e                	.insn	2, 0x404e
    80004338:	c0ff612f          	.insn	4, 0xc0ff612f
    8000433c:	cbc9                	beqz	a5,800043ce <input_data+0x3dce>
    8000433e:	c014                	sw	a3,0(s0)
    80004340:	faee                	sd	s11,368(sp)
    80004342:	408d                	li	ra,3
    80004344:	0daa                	slli	s11,s11,0xa
    80004346:	c102                	sw	zero,128(sp)
    80004348:	ede9                	bnez	a1,80004422 <input_data+0x3e22>
    8000434a:	8c433f0f          	.insn	4, 0x8c433f0f
    8000434e:	403e                	.insn	2, 0x403e
    80004350:	ba41                	j	80003ce0 <input_data+0x36e0>
    80004352:	3b58                	fld	fa4,176(a4)
    80004354:	3405                	addiw	s0,s0,-31
    80004356:	4014                	lw	a3,0(s0)
    80004358:	310c                	fld	fa1,32(a0)
    8000435a:	52ca4097          	auipc	ra,0x52ca4
    8000435e:	d0b34003          	lbu	zero,-757(t1) # 18d0b <_start-0x7ffe72f5>
    80004362:	40a8                	lw	a0,64(s1)
    80004364:	8dfc                	.insn	2, 0x8dfc
    80004366:	c085                	beqz	s1,80004386 <input_data+0x3d86>
    80004368:	eb85                	bnez	a5,80004398 <input_data+0x3d98>
    8000436a:	c028                	sw	a0,64(s0)
    8000436c:	403700ef          	jal	80074f6e <_end+0x63f6e>
    80004370:	3e1a964f          	.insn	4, 0x3e1a964f
    80004374:	52a8                	lw	a0,96(a3)
    80004376:	4016                	.insn	2, 0x4016
    80004378:	40fa0017          	auipc	zero,0x40fa0
    8000437c:	401c                	lw	a5,0(s0)
    8000437e:	010f407b          	.insn	4, 0x010f407b
    80004382:	c0bd                	beqz	s1,800043e8 <input_data+0x3de8>
    80004384:	77c9                	lui	a5,0xffff2
    80004386:	d2004077          	.insn	4, 0xd2004077
    8000438a:	40d9                	li	ra,22
    8000438c:	410231a3          	sd	a6,1027(tp) # 403 <_start-0x7ffffbfd>
    80004390:	c6f1                	beqz	a3,8000445c <input_data+0x3e5c>
    80004392:	b457409b          	.insn	4, 0xb457409b
    80004396:	c060                	sw	s0,68(s0)
    80004398:	b289                	j	80003cda <input_data+0x36da>
    8000439a:	4018                	lw	a4,0(s0)
    8000439c:	4083b0ab          	.insn	4, 0x4083b0ab
    800043a0:	eee1                	bnez	a3,80004478 <input_data+0x3e78>
    800043a2:	c091                	beqz	s1,800043a6 <input_data+0x3da6>
    800043a4:	342d                	addiw	s0,s0,-21
    800043a6:	884c40bb          	.insn	4, 0x884c40bb
    800043aa:	4005                	c.li	zero,1
    800043ac:	7321                	lui	t1,0xfffe8
    800043ae:	bf01                	j	800042be <input_data+0x3cbe>
    800043b0:	348e                	fld	fs1,224(sp)
    800043b2:	42fac103          	lbu	sp,1071(s5)
    800043b6:	3fe8                	fld	fa0,248(a5)
    800043b8:	410ed623          	.insn	4, 0x410ed623
    800043bc:	40f88ab3          	sub	s5,a7,a5
    800043c0:	4730                	lw	a2,72(a4)
    800043c2:	0a283fa7          	fsd	ft2,191(a6) # 4005a0bf <_start-0x3ffa5f41>
    800043c6:	c07f dd83 bf9a 6164 	.insn	18, 0xc098b014411d4434c1086164bf9add83c07f
    800043ce:	c108 4434 411d b014 
    800043d6:	c098 
    800043d8:	c0c4a4b3          	.insn	4, 0xc0c4a4b3
    800043dc:	0325                	addi	t1,t1,9 # fffffffffffe8009 <_end+0xffffffff7ffd7009>
    800043de:	bfa6                	fsd	fs1,504(sp)
    800043e0:	931d                	srli	a4,a4,0x27
    800043e2:	40df d65e 40e1      	.insn	6, 0x40e1d65e40df
    800043e8:	26e1                	addiw	a3,a3,24 # ffffffffffff3018 <_end+0xffffffff7ffe2018>
    800043ea:	dbf03f7f 93d74104 	.insn	16, 0x9507c0fb3605410993d74104dbf03f7f
    800043f2:	36054109 9507c0fb 
    800043fa:	c095                	beqz	s1,8000441e <input_data+0x3e1e>
    800043fc:	5d25                	li	s10,-23
    800043fe:	c041                	beqz	s0,8000447e <input_data+0x3e7e>
    80004400:	aa2e                	fsd	fa1,272(sp)
    80004402:	4034                	lw	a3,64(s0)
    80004404:	4bec                	lw	a1,84(a5)
    80004406:	400e                	.insn	2, 0x400e
    80004408:	404b1013          	.insn	4, 0x404b1013
    8000440c:	d9e8                	sw	a0,116(a1)
    8000440e:	c0b9                	beqz	s1,80004454 <input_data+0x3e54>
    80004410:	b44e                	fsd	fs3,40(sp)
    80004412:	c0ba                	sw	a4,64(sp)
    80004414:	402d8623          	sb	sp,1036(s11)
    80004418:	fcfc                	sd	a5,248(s1)
    8000441a:	403e                	.insn	2, 0x403e
    8000441c:	c02ede83          	lhu	t4,-1022(t4)
    80004420:	4040023f 410c6a9a 	.insn	8, 0x410c6a9a4040023f
    80004428:	e2d5                	bnez	a3,800044cc <input_data+0x3ecc>
    8000442a:	dacfc10f          	.insn	4, 0xdacfc10f
    8000442e:	bf09                	j	80004340 <input_data+0x3d40>
    80004430:	8186                	mv	gp,ra
    80004432:	c0d2                	sw	s4,64(sp)
    80004434:	0e4c                	addi	a1,sp,788
    80004436:	c09e                	sw	t2,64(sp)
    80004438:	94e4                	.insn	2, 0x94e4
    8000443a:	89a2c117          	auipc	sp,0x89a2c
    8000443e:	4105                	li	sp,1
    80004440:	4326                	lw	t1,72(sp)
    80004442:	40ee                	lw	ra,216(sp)
    80004444:	8789                	srai	a5,a5,0x2
    80004446:	c094                	sw	a3,0(s1)
    80004448:	c32d                	beqz	a4,800044aa <input_data+0x3eaa>
    8000444a:	4105                	li	sp,1
    8000444c:	c11ef64b          	fnmsub.s	fa2,ft9,fa7,fs8
    80004450:	1afc                	addi	a5,sp,380
    80004452:	4008                	lw	a0,0(s0)
    80004454:	070c                	addi	a1,sp,896
    80004456:	4050                	lw	a2,4(s0)
    80004458:	3f2e74f3          	csrrci	s1,0x3f2,28
    8000445c:	70e1                	lui	ra,0xffff8
    8000445e:	c0d1                	beqz	s1,800044e2 <input_data+0x3ee2>
    80004460:	8fa6                	mv	t6,s1
    80004462:	c0b6                	sw	a3,64(sp)
    80004464:	a8b9                	j	800044c2 <input_data+0x3ec2>
    80004466:	3fa4                	fld	fs1,120(a5)
    80004468:	78fa                	ld	a7,440(sp)
    8000446a:	4109                	li	sp,2
    8000446c:	dad5                	beqz	a3,80004420 <input_data+0x3e20>
    8000446e:	410c                	lw	a1,0(a0)
    80004470:	bfc73d53          	.insn	4, 0xbfc73d53
    80004474:	c0641d47          	fmsub.s	fs10,fs0,ft6,fs8,rtz
    80004478:	a3b5                	j	800049e4 <dstData+0x39c>
    8000447a:	40fa                	lw	ra,156(sp)
    8000447c:	2bcd                	addiw	s7,s7,19 # ffffffffffff8013 <_end+0xffffffff7ffe7013>
    8000447e:	c0f8                	sw	a4,68(s1)
    80004480:	e384                	sd	s1,0(a5)
    80004482:	96c0c0cf          	.insn	4, 0x96c0c0cf
    80004486:	d62b40d3          	.insn	4, 0xd62b40d3
    8000448a:	2891411b          	.insn	4, 0x2891411b
    8000448e:	f64b411b          	.insn	4, 0xf64b411b
    80004492:	40d8                	lw	a4,4(s1)
    80004494:	c113ad3b          	.insn	4, 0xc113ad3b
    80004498:	ec55                	bnez	s0,80004554 <input_data+0x3f54>
    8000449a:	53cb40d7          	.insn	4, 0x53cb40d7
    8000449e:	2b8a4113          	xori	sp,s4,696
    800044a2:	c11a                	sw	t1,128(sp)
    800044a4:	eda2                	sd	s0,216(sp)
    800044a6:	4042                	.insn	2, 0x4042
    800044a8:	a0fd                	j	80004596 <input_data+0x3f96>
    800044aa:	40f5                	li	ra,29
    800044ac:	b999                	j	80004102 <input_data+0x3b02>
    800044ae:	c01e                	sw	t2,0(sp)
    800044b0:	5144                	lw	s1,36(a0)
    800044b2:	c0a8                	sw	a0,64(s1)
    800044b4:	8d1e                	mv	s10,t2
    800044b6:	c0f4                	sw	a3,68(s1)
    800044b8:	7321                	lui	t1,0xfffe8
    800044ba:	c0e8                	sw	a0,68(s1)
    800044bc:	ef05                	bnez	a4,800044f4 <input_data+0x3ef4>
    800044be:	d4f8c113          	xori	sp,a7,-689
    800044c2:	070340cb          	.insn	4, 0x070340cb
    800044c6:	a637406b          	.insn	4, 0xa637406b
    800044ca:	c14e3dc7          	fmsub.s	fs11,ft8,fs4,fs8,rup
    800044ce:	c0ce                	sw	s3,64(sp)
    800044d0:	65a5                	lui	a1,0x9
    800044d2:	c02e                	sw	a1,0(sp)
    800044d4:	1519                	addi	a0,a0,-26
    800044d6:	5edd411b          	.insn	4, 0x5edd411b
    800044da:	3fe2                	fld	ft11,56(sp)
    800044dc:	3854                	fld	fa3,176(s0)
    800044de:	3fdc                	fld	fa5,184(a5)
    800044e0:	b765                	j	80004488 <input_data+0x3e88>
    800044e2:	c0c6                	sw	a7,64(sp)
    800044e4:	9765                	srai	a4,a4,0x39
    800044e6:	aa8d40a3          	.insn	4, 0xaa8d40a3
    800044ea:	c0fc                	sw	a5,68(s1)
    800044ec:	40f28503          	lb	a0,1039(t0)
    800044f0:	a87e                	fsd	ft11,16(sp)
    800044f2:	4539403b          	.insn	4, 0x4539403b
    800044f6:	bf5f 00ec 4105      	.insn	6, 0x410500ecbf5f
    800044fc:	27a2                	fld	fa5,8(sp)
    800044fe:	b6393fc7          	.insn	4, 0xb6393fc7
    80004502:	407a                	.insn	2, 0x407a
    80004504:	b7c0                	fsd	fs0,168(a5)
    80004506:	4116                	lw	sp,68(sp)
    80004508:	41014a57          	vadc.vxm	v20,v16,sp,v0
    8000450c:	c0f80e1b          	addiw	t3,a6,-1009
    80004510:	9831                	andi	s0,s0,-20
    80004512:	4010                	lw	a2,0(s0)
    80004514:	0e8d                	addi	t4,t4,3
    80004516:	bf94                	fsd	fa3,56(a5)
    80004518:	4094046f          	jal	s0,80045120 <_end+0x34120>
    8000451c:	6ece                	ld	t4,208(sp)
    8000451e:	bfbd                	j	8000449c <input_data+0x3e9c>
    80004520:	c5c5                	beqz	a1,800045c8 <input_data+0x3fc8>
    80004522:	4088                	lw	a0,0(s1)
    80004524:	f1d0                	sd	a2,160(a1)
    80004526:	5c744117          	auipc	sp,0x5c744
    8000452a:	40ba                	lw	ra,140(sp)
    8000452c:	4013ba6b          	.insn	4, 0x4013ba6b
    80004530:	5bd1                	li	s7,-12
    80004532:	bf58                	fsd	fa4,184(a4)
    80004534:	986e                	add	a6,a6,s11
    80004536:	40ee                	lw	ra,216(sp)
    80004538:	9d8c                	.insn	2, 0x9d8c
    8000453a:	be60                	fsd	fs0,248(a2)
    8000453c:	08e1                	addi	a7,a7,24 # fffffffffffe1018 <_end+0xffffffff7ffd0018>
    8000453e:	a1c7c0cb          	fnmsub.s	ft1,fa5,ft8,fs4,rmm
    80004542:	c11e                	sw	t2,128(sp)
    80004544:	a5fc                	fsd	fa5,200(a1)
    80004546:	3ff1                	addiw	t6,t6,-4
    80004548:	a489                	j	8000478a <dstData+0x142>
    8000454a:	c095                	beqz	s1,8000456e <input_data+0x3f6e>
    8000454c:	2bde                	fld	fs7,464(sp)
    8000454e:	4084                	lw	s1,0(s1)
    80004550:	40b9a62f          	amoor.w	a2,a1,(s3)
    80004554:	1f00                	addi	s0,sp,944
    80004556:	3ebc                	fld	fa5,120(a3)
    80004558:	f749                	bnez	a4,800044e2 <input_data+0x3ee2>
    8000455a:	96d5407b          	.insn	4, 0x96d5407b
    8000455e:	3ef2                	fld	ft9,312(sp)
    80004560:	414c                	lw	a1,4(a0)
    80004562:	409a                	lw	ra,132(sp)
    80004564:	0a85                	addi	s5,s5,1
    80004566:	4062                	.insn	2, 0x4062
    80004568:	1afc                	addi	a5,sp,380
    8000456a:	40d2                	lw	ra,20(sp)
    8000456c:	091a                	slli	s2,s2,0x6
    8000456e:	c100                	sw	s0,0(a0)
    80004570:	7c7a                	ld	s8,440(sp)
    80004572:	c0d5                	beqz	s1,80004616 <_GLOBAL_OFFSET_TABLE_+0xe>
    80004574:	11d8                	addi	a4,sp,228
    80004576:	c04d                	beqz	s0,80004618 <_GLOBAL_OFFSET_TABLE_+0x10>
    80004578:	c0b3d23b          	.insn	4, 0xc0b3d23b
    8000457c:	a750                	fsd	fa2,136(a4)
    8000457e:	4061                	c.li	zero,24
    80004580:	408bccd3          	.insn	4, 0x408bccd3
    80004584:	3982                	fld	fs3,32(sp)
    80004586:	537e40c3          	fmadd.d	ft1,ft8,fs7,fa0,rmm
    8000458a:	c039                	beqz	s0,800045d0 <input_data+0x3fd0>
    8000458c:	11b8                	addi	a4,sp,232
    8000458e:	825e40f3          	.insn	4, 0x825e40f3
    80004592:	c0aa                	sw	a0,64(sp)
    80004594:	8428                	.insn	2, 0x8428
    80004596:	411a                	lw	sp,132(sp)
    80004598:	421c                	lw	a5,0(a2)
    8000459a:	88e33fbf 815240d2 	.insn	8, 0x815240d288e33fbf
    800045a2:	401d                	c.li	zero,7
    800045a4:	90bc                	.insn	2, 0x90bc
    800045a6:	40c9                	li	ra,18
    800045a8:	a614                	fsd	fa3,8(a2)
    800045aa:	c09c                	sw	a5,0(s1)
    800045ac:	4739                	li	a4,14
    800045ae:	bfb1                	j	8000450a <input_data+0x3f0a>
    800045b0:	e81f 4106 d968      	.insn	6, 0xd9684106e81f
    800045b6:	40dd                	li	ra,23
    800045b8:	6045                	c.lui	zero,0x11
    800045ba:	c111                	beqz	a0,800045be <input_data+0x3fbe>
    800045bc:	dfa0                	sw	s0,120(a5)
    800045be:	bfe5                	j	800045b6 <input_data+0x3fb6>
    800045c0:	18a5                	addi	a7,a7,-23
    800045c2:	c116                	sw	t0,128(sp)
    800045c4:	c108a9d3          	.insn	4, 0xc108a9d3
    800045c8:	f4dc                	sd	a5,168(s1)
    800045ca:	97f5bf73          	csrrc	t5,0x97f,a1
    800045ce:	4101                	li	sp,0
    800045d0:	ac8c                	fsd	fa1,24(s1)
    800045d2:	c0d0                	sw	a2,4(s1)
    800045d4:	fc44                	sd	s1,184(s0)
    800045d6:	0ff53fdb          	.insn	4, 0x0ff53fdb
    800045da:	c115                	beqz	a0,800045fe <input_data+0x3ffe>
    800045dc:	a655                	j	80004980 <dstData+0x338>
    800045de:	4072c0d7          	vadc.vxm	v1,v7,t0,v0
    800045e2:	9fe2c0f7          	.insn	4, 0x9fe2c0f7
    800045e6:	4085                	li	ra,1
    800045e8:	f8fa                	sd	t5,112(sp)
    800045ea:	4108                	lw	a0,0(a0)
    800045ec:	92b2                	add	t0,t0,a2
    800045ee:	c08d                	beqz	s1,80004610 <_GLOBAL_OFFSET_TABLE_+0x8>
    800045f0:	c08303fb          	.insn	4, 0xc08303fb
    800045f4:	b891                	j	80003e48 <input_data+0x3848>
    800045f6:	c0e4                	sw	s1,68(s1)
    800045f8:	1fb0                	addi	a2,sp,1016
    800045fa:	4fd7c02f          	.insn	4, 0x4fd7c02f
    800045fe:	c068                	sw	a0,68(s0)

0000000080004600 <neg_inf_32>:
    80004600:	0000                	unimp
    80004602:	ff80                	sd	s0,56(a5)

Disassembly of section .got:

0000000080004608 <_GLOBAL_OFFSET_TABLE_>:
	...
    80004610:	1000                	addi	s0,sp,32
    80004612:	8001                	c.srli64	s0
    80004614:	0000                	unimp
    80004616:	0000                	unimp
    80004618:	04d0                	addi	a2,sp,580
    8000461a:	8000                	.insn	2, 0x8000
    8000461c:	0000                	unimp
    8000461e:	0000                	unimp
    80004620:	0400                	addi	s0,sp,512
    80004622:	8000                	.insn	2, 0x8000
    80004624:	0000                	unimp
    80004626:	0000                	unimp
    80004628:	4600                	lw	s0,8(a2)
    8000462a:	8000                	.insn	2, 0x8000
    8000462c:	0000                	unimp
    8000462e:	0000                	unimp
    80004630:	0330                	addi	a2,sp,392
    80004632:	8000                	.insn	2, 0x8000
    80004634:	0000                	unimp
	...

Disassembly of section .got.plt:

0000000080004638 <.got.plt>:
    80004638:	ffff                	.insn	2, 0xffff
    8000463a:	ffff                	.insn	2, 0xffff
    8000463c:	ffff                	.insn	2, 0xffff
    8000463e:	ffff                	.insn	2, 0xffff
	...

Disassembly of section .comment:

0000000000000000 <.comment>:
   0:	3a434347          	fmsub.d	ft6,ft6,ft4,ft7,rmm
   4:	2820                	fld	fs0,80(s0)
   6:	2029                	.insn	2, 0x2029
   8:	3431                	addiw	s0,s0,-20
   a:	322e                	fld	ft4,232(sp)
   c:	302e                	fld	ft0,232(sp)
	...

Disassembly of section .riscv.attributes:

0000000000000000 <.riscv.attributes>:
   0:	bf41                	j	ffffffffffffff90 <_end+0xffffffff7ffeef90>
   2:	0000                	unimp
   4:	7200                	ld	s0,32(a2)
   6:	7369                	lui	t1,0xffffa
   8:	01007663          	bgeu	zero,a6,14 <_start-0x7fffffec>
   c:	00b5                	addi	ra,ra,13 # ffffffffffff800d <_end+0xffffffff7ffe700d>
   e:	0000                	unimp
  10:	1004                	addi	s1,sp,32
  12:	7205                	lui	tp,0xfffe1
  14:	3676                	fld	fa2,376(sp)
  16:	6934                	ld	a3,80(a0)
  18:	7032                	.insn	2, 0x7032
  1a:	5f31                	li	t5,-20
  1c:	326d                	addiw	tp,tp,-5 # fffffffffffe0ffb <_end+0xffffffff7ffcfffb>
  1e:	3070                	fld	fa2,224(s0)
  20:	615f 7032 5f31      	.insn	6, 0x5f317032615f
  26:	3266                	fld	ft4,120(sp)
  28:	3270                	fld	fa2,224(a2)
  2a:	645f 7032 5f32      	.insn	6, 0x5f327032645f
  30:	30703263          	.insn	4, 0x30703263
  34:	765f 7031 5f30      	.insn	6, 0x5f307031765f
  3a:	697a                	ld	s2,408(sp)
  3c:	32727363          	bgeu	tp,t2,362 <_start-0x7ffffc9e>
  40:	3070                	fld	fa2,224(s0)
  42:	7a5f 6669 6e65      	.insn	6, 0x6e6566697a5f
  48:	32696563          	bltu	s2,t1,372 <_start-0x7ffffc8e>
  4c:	3070                	fld	fa2,224(s0)
  4e:	7a5f 6d6d 6c75      	.insn	6, 0x6c756d6d7a5f
  54:	7031                	c.lui	zero,0xfffec
  56:	5f30                	lw	a2,120(a4)
  58:	617a                	ld	sp,408(sp)
  5a:	6d61                	lui	s10,0x18
  5c:	3070316f          	jal	sp,3b62 <_start-0x7fffc49e>
  60:	7a5f 6c61 7372      	.insn	6, 0x73726c617a5f
  66:	30703163          	.insn	4, 0x30703163
  6a:	7a5f 6576 3233      	.insn	6, 0x323365767a5f
  70:	3166                	fld	ft2,120(sp)
  72:	3070                	fld	fa2,224(s0)
  74:	7a5f 6576 3233      	.insn	6, 0x323365767a5f
  7a:	3178                	fld	fa4,224(a0)
  7c:	3070                	fld	fa2,224(s0)
  7e:	7a5f 6576 3436      	.insn	6, 0x343665767a5f
  84:	3164                	fld	fs1,224(a0)
  86:	3070                	fld	fa2,224(s0)
  88:	7a5f 6576 3436      	.insn	6, 0x343665767a5f
  8e:	3166                	fld	ft2,120(sp)
  90:	3070                	fld	fa2,224(s0)
  92:	7a5f 6576 3436      	.insn	6, 0x343665767a5f
  98:	3178                	fld	fa4,224(a0)
  9a:	3070                	fld	fa2,224(s0)
  9c:	7a5f 6c76 3231      	.insn	6, 0x32316c767a5f
  a2:	6238                	ld	a4,64(a2)
  a4:	7031                	c.lui	zero,0xfffec
  a6:	5f30                	lw	a2,120(a4)
  a8:	767a                	ld	a2,440(sp)
  aa:	336c                	fld	fa1,224(a4)
  ac:	6232                	ld	tp,264(sp)
  ae:	7031                	c.lui	zero,0xfffec
  b0:	5f30                	lw	a2,120(a4)
  b2:	767a                	ld	a2,440(sp)
  b4:	366c                	fld	fa1,232(a2)
  b6:	6234                	ld	a3,64(a2)
  b8:	7031                	c.lui	zero,0xfffec
  ba:	0030                	addi	a2,sp,8
  bc:	0108                	addi	a0,sp,128
  be:	0b0a                	slli	s6,s6,0x2
