
build/main:     file format elf64-littleriscv


Disassembly of section .text:

0000000080000000 <_start>:
    80000000:	00000413          	li	s0,0
    80000004:	00001117          	auipc	sp,0x1
    80000008:	4ec13103          	ld	sp,1260(sp) # 800014f0 <_GLOBAL_OFFSET_TABLE_+0x8>
    8000000c:	192000ef          	jal	8000019e <main>

0000000080000010 <vfexp_f16m1>:
    80000010:	0c857057          	vsetvli	zero,a0,e16,m1,ta,ma
    80000014:	4a861557          	vfwcvt.f.f.v	v10,v8
    80000018:	00000797          	auipc	a5,0x0
    8000001c:	1d87a787          	flw	fa5,472(a5) # 800001f0 <_etext+0x4>
    80000020:	0d107057          	vsetvli	zero,zero,e32,m2,ta,ma
    80000024:	72f1                	lui	t0,0xffffc
    80000026:	92a7d457          	vfmul.vf	v8,v10,fa5
    8000002a:	9116                	add	sp,sp,t0
    8000002c:	03300593          	li	a1,51
    80000030:	02016707          	vle32.v	v14,(sp)
    80000034:	00001617          	auipc	a2,0x1
    80000038:	4dc63603          	ld	a2,1244(a2) # 80001510 <_GLOBAL_OFFSET_TABLE_+0x28>
    8000003c:	03400713          	li	a4,52
    80000040:	4a809457          	vfcvt.x.f.v	v8,v8
    80000044:	0d15f057          	vsetvli	zero,a1,e32,m2,ta,ma
    80000048:	02066a07          	vle32.v	v20,(a2)
    8000004c:	0d157057          	vsetvli	zero,a0,e32,m2,ta,ma
    80000050:	4a819457          	vfcvt.f.x.v	v8,v8
    80000054:	00001697          	auipc	a3,0x1
    80000058:	4b46b683          	ld	a3,1204(a3) # 80001508 <_GLOBAL_OFFSET_TABLE_+0x20>
    8000005c:	0d177057          	vsetvli	zero,a4,e32,m2,ta,ma
    80000060:	0206e607          	vle32.v	v12,(a3)
    80000064:	00000817          	auipc	a6,0x0
    80000068:	19082787          	flw	fa5,400(a6) # 800001f4 <_etext+0x8>
    8000006c:	0d157057          	vsetvli	zero,a0,e32,m2,ta,ma
    80000070:	00001797          	auipc	a5,0x1
    80000074:	4907b783          	ld	a5,1168(a5) # 80001500 <_GLOBAL_OFFSET_TABLE_+0x18>
    80000078:	be87d557          	vfnmsac.vf	v10,fa5,v8
    8000007c:	0d177057          	vsetvli	zero,a4,e32,m2,ta,ma
    80000080:	0207e807          	vle32.v	v16,(a5)
    80000084:	0d157057          	vsetvli	zero,a0,e32,m2,ta,ma
    80000088:	32c70457          	vrgather.vv	v8,v12,v14
    8000008c:	33470957          	vrgather.vv	v18,v20,v14
    80000090:	6291                	lui	t0,0x4
    80000092:	9e80b657          	vmv2r.v	v12,v8
    80000096:	b2a91657          	vfmacc.vv	v12,v18,v10
    8000009a:	33070457          	vrgather.vv	v8,v16,v14
    8000009e:	9116                	add	sp,sp,t0
    800000a0:	9e80b757          	vmv2r.v	v14,v8
    800000a4:	b2a61757          	vfmacc.vv	v14,v12,v10
    800000a8:	b2a71457          	vfmacc.vv	v8,v14,v10
    800000ac:	0c807057          	vsetvli	zero,zero,e16,m1,ta,ma
    800000b0:	4a8a1457          	vfncvt.f.f.w	v8,v8
    800000b4:	8082                	ret

00000000800000b6 <softmax_e16>:
    800000b6:	715d                	addi	sp,sp,-80
    800000b8:	00001797          	auipc	a5,0x1
    800000bc:	4407b783          	ld	a5,1088(a5) # 800014f8 <_GLOBAL_OFFSET_TABLE_+0x10>
    800000c0:	00079787          	flh	fa5,0(a5)
    800000c4:	e0a2                	sd	s0,64(sp)
    800000c6:	4d80                	lw	s0,24(a1)
    800000c8:	f44e                	sd	s3,40(sp)
    800000ca:	f052                	sd	s4,32(sp)
    800000cc:	ec56                	sd	s5,24(sp)
    800000ce:	cc80f057          	vsetivli	zero,1,e16,m1,ta,ma
    800000d2:	e486                	sd	ra,72(sp)
    800000d4:	a422                	fsd	fs0,8(sp)
    800000d6:	02053a03          	ld	s4,32(a0)
    800000da:	0205ba83          	ld	s5,32(a1)
    800000de:	5e07d0d7          	vfmv.v.f	v1,fa5
    800000e2:	89ae                	mv	s3,a1
    800000e4:	02805363          	blez	s0,8000010a <softmax_e16+0x54>
    800000e8:	4701                	li	a4,0
    800000ea:	40e407bb          	subw	a5,s0,a4
    800000ee:	00171693          	slli	a3,a4,0x1
    800000f2:	0c87f7d7          	vsetvli	a5,a5,e16,m1,ta,ma
    800000f6:	96d6                	add	a3,a3,s5
    800000f8:	0206d107          	vle16.v	v2,(a3)
    800000fc:	9f3d                	addw	a4,a4,a5
    800000fe:	1e2090d7          	vfredmax.vs	v1,v2,v1
    80000102:	fe8744e3          	blt	a4,s0,800000ea <softmax_e16+0x34>
    80000106:	cc80f057          	vsetivli	zero,1,e16,m1,ta,ma
    8000010a:	42101457          	vfmv.f.s	fs0,v1
    8000010e:	420060d7          	vmv.s.x	v1,zero
    80000112:	04805363          	blez	s0,80000158 <softmax_e16+0xa2>
    80000116:	f84a                	sd	s2,48(sp)
    80000118:	fc26                	sd	s1,56(sp)
    8000011a:	4901                	li	s2,0
    8000011c:	00191493          	slli	s1,s2,0x1
    80000120:	4124043b          	subw	s0,s0,s2
    80000124:	0c847457          	vsetvli	s0,s0,e16,m1,ta,ma
    80000128:	009a87b3          	add	a5,s5,s1
    8000012c:	0207d407          	vle16.v	v8,(a5)
    80000130:	8522                	mv	a0,s0
    80000132:	94d2                	add	s1,s1,s4
    80000134:	0124093b          	addw	s2,s0,s2
    80000138:	0a845457          	vfsub.vf	v8,v8,fs0
    8000013c:	ed5ff0ef          	jal	80000010 <vfexp_f16m1>
    80000140:	0c847057          	vsetvli	zero,s0,e16,m1,ta,ma
    80000144:	0204d427          	vse16.v	v8,(s1)
    80000148:	0e8090d7          	vfredosum.vs	v1,v8,v1
    8000014c:	0189a403          	lw	s0,24(s3)
    80000150:	fc8946e3          	blt	s2,s0,8000011c <softmax_e16+0x66>
    80000154:	74e2                	ld	s1,56(sp)
    80000156:	7942                	ld	s2,48(sp)
    80000158:	421017d7          	vfmv.f.s	fa5,v1
    8000015c:	0ff0000f          	fence
    80000160:	0189a783          	lw	a5,24(s3)
    80000164:	02f05463          	blez	a5,8000018c <softmax_e16+0xd6>
    80000168:	4681                	li	a3,0
    8000016a:	9f95                	subw	a5,a5,a3
    8000016c:	00169713          	slli	a4,a3,0x1
    80000170:	0c87f7d7          	vsetvli	a5,a5,e16,m1,ta,ma
    80000174:	9752                	add	a4,a4,s4
    80000176:	02075087          	vle16.v	v1,(a4)
    8000017a:	9ebd                	addw	a3,a3,a5
    8000017c:	8217d0d7          	vfdiv.vf	v1,v1,fa5
    80000180:	020750a7          	vse16.v	v1,(a4)
    80000184:	0189a783          	lw	a5,24(s3)
    80000188:	fef6c1e3          	blt	a3,a5,8000016a <softmax_e16+0xb4>
    8000018c:	60a6                	ld	ra,72(sp)
    8000018e:	6406                	ld	s0,64(sp)
    80000190:	79a2                	ld	s3,40(sp)
    80000192:	7a02                	ld	s4,32(sp)
    80000194:	6ae2                	ld	s5,24(sp)
    80000196:	2422                	fld	fs0,8(sp)
    80000198:	4501                	li	a0,0
    8000019a:	6161                	addi	sp,sp,80
    8000019c:	8082                	ret

000000008000019e <main>:
    8000019e:	cdb37057          	vsetivli	zero,6,e64,m8,ta,ma
    800001a2:	00000797          	auipc	a5,0x0
    800001a6:	2de78793          	addi	a5,a5,734 # 80000480 <der_1+0xd0>
    800001aa:	0207f807          	vle64.v	v16,(a5)
    800001ae:	7119                	addi	sp,sp,-128
    800001b0:	f8a2                	sd	s0,112(sp)
    800001b2:	f4a6                	sd	s1,104(sp)
    800001b4:	f0ca                	sd	s2,96(sp)
    800001b6:	fc86                	sd	ra,120(sp)
    800001b8:	00000797          	auipc	a5,0x0
    800001bc:	2f878793          	addi	a5,a5,760 # 800004b0 <der_1+0x100>
    800001c0:	0207f407          	vle64.v	v8,(a5)
    800001c4:	02017827          	vse64.v	v16,(sp)
    800001c8:	1804                	addi	s1,sp,48
    800001ca:	890a                	mv	s2,sp
    800001cc:	4429                	li	s0,10
    800001ce:	0204f427          	vse64.v	v8,(s1)
    800001d2:	85ca                	mv	a1,s2
    800001d4:	8526                	mv	a0,s1
    800001d6:	347d                	addiw	s0,s0,-1
    800001d8:	edfff0ef          	jal	800000b6 <softmax_e16>
    800001dc:	f87d                	bnez	s0,800001d2 <main+0x34>
    800001de:	70e6                	ld	ra,120(sp)
    800001e0:	7446                	ld	s0,112(sp)
    800001e2:	74a6                	ld	s1,104(sp)
    800001e4:	7906                	ld	s2,96(sp)
    800001e6:	4501                	li	a0,0
    800001e8:	6109                	addi	sp,sp,128
    800001ea:	8082                	ret
